
STM32F407_SDCARD.elf:     file format elf32-littlearm

Sections:
Idx Name          Size      VMA       LMA       File off  Algn
  0 .isr_vector   00000188  08000000  08000000  00001000  2**0
                  CONTENTS, ALLOC, LOAD, READONLY, DATA
  1 .text         00004dbc  08000188  08000188  00001188  2**2
                  CONTENTS, ALLOC, LOAD, READONLY, CODE
  2 .rodata       000007f4  08004f44  08004f44  00005f44  2**1
                  CONTENTS, ALLOC, LOAD, READONLY, DATA
  3 .ARM.extab    00000000  08005738  08005738  00007024  2**0
                  CONTENTS, READONLY
  4 .ARM          00000008  08005738  08005738  00006738  2**2
                  CONTENTS, ALLOC, LOAD, READONLY, DATA
  5 .preinit_array 00000000  08005740  08005740  00007024  2**0
                  CONTENTS, ALLOC, LOAD, DATA
  6 .init_array   00000004  08005740  08005740  00006740  2**2
                  CONTENTS, ALLOC, LOAD, READONLY, DATA
  7 .fini_array   00000004  08005744  08005744  00006744  2**2
                  CONTENTS, ALLOC, LOAD, READONLY, DATA
  8 .data         00000024  20000000  08005748  00007000  2**2
                  CONTENTS, ALLOC, LOAD, DATA
  9 .ccmram       00000000  10000000  10000000  00007024  2**0
                  CONTENTS
 10 .bss          00001a38  20000028  20000028  00007028  2**3
                  ALLOC
 11 ._user_heap_stack 00000600  20001a60  20001a60  00007028  2**0
                  ALLOC
 12 .ARM.attributes 00000030  00000000  00000000  00007024  2**0
                  CONTENTS, READONLY
 13 .comment      00000043  00000000  00000000  00007054  2**0
                  CONTENTS, READONLY
 14 .debug_frame  000000ac  00000000  00000000  00007098  2**2
                  CONTENTS, READONLY, DEBUGGING, OCTETS

Disassembly of section .text:

08000188 <__do_global_dtors_aux>:
 8000188:	b510      	push	{r4, lr}
 800018a:	4c05      	ldr	r4, [pc, #20]	@ (80001a0 <__do_global_dtors_aux+0x18>)
 800018c:	7823      	ldrb	r3, [r4, #0]
 800018e:	b933      	cbnz	r3, 800019e <__do_global_dtors_aux+0x16>
 8000190:	4b04      	ldr	r3, [pc, #16]	@ (80001a4 <__do_global_dtors_aux+0x1c>)
 8000192:	b113      	cbz	r3, 800019a <__do_global_dtors_aux+0x12>
 8000194:	4804      	ldr	r0, [pc, #16]	@ (80001a8 <__do_global_dtors_aux+0x20>)
 8000196:	f3af 8000 	nop.w
 800019a:	2301      	movs	r3, #1
 800019c:	7023      	strb	r3, [r4, #0]
 800019e:	bd10      	pop	{r4, pc}
 80001a0:	20000028 	.word	0x20000028
 80001a4:	00000000 	.word	0x00000000
 80001a8:	08004f2c 	.word	0x08004f2c

080001ac <frame_dummy>:
 80001ac:	b508      	push	{r3, lr}
 80001ae:	4b03      	ldr	r3, [pc, #12]	@ (80001bc <frame_dummy+0x10>)
 80001b0:	b11b      	cbz	r3, 80001ba <frame_dummy+0xe>
 80001b2:	4903      	ldr	r1, [pc, #12]	@ (80001c0 <frame_dummy+0x14>)
 80001b4:	4803      	ldr	r0, [pc, #12]	@ (80001c4 <frame_dummy+0x18>)
 80001b6:	f3af 8000 	nop.w
 80001ba:	bd08      	pop	{r3, pc}
 80001bc:	00000000 	.word	0x00000000
 80001c0:	2000002c 	.word	0x2000002c
 80001c4:	08004f2c 	.word	0x08004f2c

080001c8 <__aeabi_uldivmod>:
 80001c8:	b953      	cbnz	r3, 80001e0 <__aeabi_uldivmod+0x18>
 80001ca:	b94a      	cbnz	r2, 80001e0 <__aeabi_uldivmod+0x18>
 80001cc:	2900      	cmp	r1, #0
 80001ce:	bf08      	it	eq
 80001d0:	2800      	cmpeq	r0, #0
 80001d2:	bf1c      	itt	ne
 80001d4:	f04f 31ff 	movne.w	r1, #4294967295
 80001d8:	f04f 30ff 	movne.w	r0, #4294967295
 80001dc:	f000 b988 	b.w	80004f0 <__aeabi_idiv0>
 80001e0:	f1ad 0c08 	sub.w	ip, sp, #8
 80001e4:	e96d ce04 	strd	ip, lr, [sp, #-16]!
 80001e8:	f000 f806 	bl	80001f8 <__udivmoddi4>
 80001ec:	f8dd e004 	ldr.w	lr, [sp, #4]
 80001f0:	e9dd 2302 	ldrd	r2, r3, [sp, #8]
 80001f4:	b004      	add	sp, #16
 80001f6:	4770      	bx	lr

080001f8 <__udivmoddi4>:
 80001f8:	e92d 47f0 	stmdb	sp!, {r4, r5, r6, r7, r8, r9, sl, lr}
 80001fc:	9d08      	ldr	r5, [sp, #32]
 80001fe:	468e      	mov	lr, r1
 8000200:	4604      	mov	r4, r0
 8000202:	4688      	mov	r8, r1
 8000204:	2b00      	cmp	r3, #0
 8000206:	d14a      	bne.n	800029e <__udivmoddi4+0xa6>
 8000208:	428a      	cmp	r2, r1
 800020a:	4617      	mov	r7, r2
 800020c:	d962      	bls.n	80002d4 <__udivmoddi4+0xdc>
 800020e:	fab2 f682 	clz	r6, r2
 8000212:	b14e      	cbz	r6, 8000228 <__udivmoddi4+0x30>
 8000214:	f1c6 0320 	rsb	r3, r6, #32
 8000218:	fa01 f806 	lsl.w	r8, r1, r6
 800021c:	fa20 f303 	lsr.w	r3, r0, r3
 8000220:	40b7      	lsls	r7, r6
 8000222:	ea43 0808 	orr.w	r8, r3, r8
 8000226:	40b4      	lsls	r4, r6
 8000228:	ea4f 4e17 	mov.w	lr, r7, lsr #16
 800022c:	fa1f fc87 	uxth.w	ip, r7
 8000230:	fbb8 f1fe 	udiv	r1, r8, lr
 8000234:	0c23      	lsrs	r3, r4, #16
 8000236:	fb0e 8811 	mls	r8, lr, r1, r8
 800023a:	ea43 4308 	orr.w	r3, r3, r8, lsl #16
 800023e:	fb01 f20c 	mul.w	r2, r1, ip
 8000242:	429a      	cmp	r2, r3
 8000244:	d909      	bls.n	800025a <__udivmoddi4+0x62>
 8000246:	18fb      	adds	r3, r7, r3
 8000248:	f101 30ff 	add.w	r0, r1, #4294967295
 800024c:	f080 80ea 	bcs.w	8000424 <__udivmoddi4+0x22c>
 8000250:	429a      	cmp	r2, r3
 8000252:	f240 80e7 	bls.w	8000424 <__udivmoddi4+0x22c>
 8000256:	3902      	subs	r1, #2
 8000258:	443b      	add	r3, r7
 800025a:	1a9a      	subs	r2, r3, r2
 800025c:	b2a3      	uxth	r3, r4
 800025e:	fbb2 f0fe 	udiv	r0, r2, lr
 8000262:	fb0e 2210 	mls	r2, lr, r0, r2
 8000266:	ea43 4302 	orr.w	r3, r3, r2, lsl #16
 800026a:	fb00 fc0c 	mul.w	ip, r0, ip
 800026e:	459c      	cmp	ip, r3
 8000270:	d909      	bls.n	8000286 <__udivmoddi4+0x8e>
 8000272:	18fb      	adds	r3, r7, r3
 8000274:	f100 32ff 	add.w	r2, r0, #4294967295
 8000278:	f080 80d6 	bcs.w	8000428 <__udivmoddi4+0x230>
 800027c:	459c      	cmp	ip, r3
 800027e:	f240 80d3 	bls.w	8000428 <__udivmoddi4+0x230>
 8000282:	443b      	add	r3, r7
 8000284:	3802      	subs	r0, #2
 8000286:	ea40 4001 	orr.w	r0, r0, r1, lsl #16
 800028a:	eba3 030c 	sub.w	r3, r3, ip
 800028e:	2100      	movs	r1, #0
 8000290:	b11d      	cbz	r5, 800029a <__udivmoddi4+0xa2>
 8000292:	40f3      	lsrs	r3, r6
 8000294:	2200      	movs	r2, #0
 8000296:	e9c5 3200 	strd	r3, r2, [r5]
 800029a:	e8bd 87f0 	ldmia.w	sp!, {r4, r5, r6, r7, r8, r9, sl, pc}
 800029e:	428b      	cmp	r3, r1
 80002a0:	d905      	bls.n	80002ae <__udivmoddi4+0xb6>
 80002a2:	b10d      	cbz	r5, 80002a8 <__udivmoddi4+0xb0>
 80002a4:	e9c5 0100 	strd	r0, r1, [r5]
 80002a8:	2100      	movs	r1, #0
 80002aa:	4608      	mov	r0, r1
 80002ac:	e7f5      	b.n	800029a <__udivmoddi4+0xa2>
 80002ae:	fab3 f183 	clz	r1, r3
 80002b2:	2900      	cmp	r1, #0
 80002b4:	d146      	bne.n	8000344 <__udivmoddi4+0x14c>
 80002b6:	4573      	cmp	r3, lr
 80002b8:	d302      	bcc.n	80002c0 <__udivmoddi4+0xc8>
 80002ba:	4282      	cmp	r2, r0
 80002bc:	f200 8105 	bhi.w	80004ca <__udivmoddi4+0x2d2>
 80002c0:	1a84      	subs	r4, r0, r2
 80002c2:	eb6e 0203 	sbc.w	r2, lr, r3
 80002c6:	2001      	movs	r0, #1
 80002c8:	4690      	mov	r8, r2
 80002ca:	2d00      	cmp	r5, #0
 80002cc:	d0e5      	beq.n	800029a <__udivmoddi4+0xa2>
 80002ce:	e9c5 4800 	strd	r4, r8, [r5]
 80002d2:	e7e2      	b.n	800029a <__udivmoddi4+0xa2>
 80002d4:	2a00      	cmp	r2, #0
 80002d6:	f000 8090 	beq.w	80003fa <__udivmoddi4+0x202>
 80002da:	fab2 f682 	clz	r6, r2
 80002de:	2e00      	cmp	r6, #0
 80002e0:	f040 80a4 	bne.w	800042c <__udivmoddi4+0x234>
 80002e4:	1a8a      	subs	r2, r1, r2
 80002e6:	0c03      	lsrs	r3, r0, #16
 80002e8:	ea4f 4e17 	mov.w	lr, r7, lsr #16
 80002ec:	b280      	uxth	r0, r0
 80002ee:	b2bc      	uxth	r4, r7
 80002f0:	2101      	movs	r1, #1
 80002f2:	fbb2 fcfe 	udiv	ip, r2, lr
 80002f6:	fb0e 221c 	mls	r2, lr, ip, r2
 80002fa:	ea43 4302 	orr.w	r3, r3, r2, lsl #16
 80002fe:	fb04 f20c 	mul.w	r2, r4, ip
 8000302:	429a      	cmp	r2, r3
 8000304:	d907      	bls.n	8000316 <__udivmoddi4+0x11e>
 8000306:	18fb      	adds	r3, r7, r3
 8000308:	f10c 38ff 	add.w	r8, ip, #4294967295
 800030c:	d202      	bcs.n	8000314 <__udivmoddi4+0x11c>
 800030e:	429a      	cmp	r2, r3
 8000310:	f200 80e0 	bhi.w	80004d4 <__udivmoddi4+0x2dc>
 8000314:	46c4      	mov	ip, r8
 8000316:	1a9b      	subs	r3, r3, r2
 8000318:	fbb3 f2fe 	udiv	r2, r3, lr
 800031c:	fb0e 3312 	mls	r3, lr, r2, r3
 8000320:	ea40 4303 	orr.w	r3, r0, r3, lsl #16
 8000324:	fb02 f404 	mul.w	r4, r2, r4
 8000328:	429c      	cmp	r4, r3
 800032a:	d907      	bls.n	800033c <__udivmoddi4+0x144>
 800032c:	18fb      	adds	r3, r7, r3
 800032e:	f102 30ff 	add.w	r0, r2, #4294967295
 8000332:	d202      	bcs.n	800033a <__udivmoddi4+0x142>
 8000334:	429c      	cmp	r4, r3
 8000336:	f200 80ca 	bhi.w	80004ce <__udivmoddi4+0x2d6>
 800033a:	4602      	mov	r2, r0
 800033c:	1b1b      	subs	r3, r3, r4
 800033e:	ea42 400c 	orr.w	r0, r2, ip, lsl #16
 8000342:	e7a5      	b.n	8000290 <__udivmoddi4+0x98>
 8000344:	f1c1 0620 	rsb	r6, r1, #32
 8000348:	408b      	lsls	r3, r1
 800034a:	fa22 f706 	lsr.w	r7, r2, r6
 800034e:	431f      	orrs	r7, r3
 8000350:	fa0e f401 	lsl.w	r4, lr, r1
 8000354:	fa20 f306 	lsr.w	r3, r0, r6
 8000358:	fa2e fe06 	lsr.w	lr, lr, r6
 800035c:	ea4f 4917 	mov.w	r9, r7, lsr #16
 8000360:	4323      	orrs	r3, r4
 8000362:	fa00 f801 	lsl.w	r8, r0, r1
 8000366:	fa1f fc87 	uxth.w	ip, r7
 800036a:	fbbe f0f9 	udiv	r0, lr, r9
 800036e:	0c1c      	lsrs	r4, r3, #16
 8000370:	fb09 ee10 	mls	lr, r9, r0, lr
 8000374:	ea44 440e 	orr.w	r4, r4, lr, lsl #16
 8000378:	fb00 fe0c 	mul.w	lr, r0, ip
 800037c:	45a6      	cmp	lr, r4
 800037e:	fa02 f201 	lsl.w	r2, r2, r1
 8000382:	d909      	bls.n	8000398 <__udivmoddi4+0x1a0>
 8000384:	193c      	adds	r4, r7, r4
 8000386:	f100 3aff 	add.w	sl, r0, #4294967295
 800038a:	f080 809c 	bcs.w	80004c6 <__udivmoddi4+0x2ce>
 800038e:	45a6      	cmp	lr, r4
 8000390:	f240 8099 	bls.w	80004c6 <__udivmoddi4+0x2ce>
 8000394:	3802      	subs	r0, #2
 8000396:	443c      	add	r4, r7
 8000398:	eba4 040e 	sub.w	r4, r4, lr
 800039c:	fa1f fe83 	uxth.w	lr, r3
 80003a0:	fbb4 f3f9 	udiv	r3, r4, r9
 80003a4:	fb09 4413 	mls	r4, r9, r3, r4
 80003a8:	ea4e 4404 	orr.w	r4, lr, r4, lsl #16
 80003ac:	fb03 fc0c 	mul.w	ip, r3, ip
 80003b0:	45a4      	cmp	ip, r4
 80003b2:	d908      	bls.n	80003c6 <__udivmoddi4+0x1ce>
 80003b4:	193c      	adds	r4, r7, r4
 80003b6:	f103 3eff 	add.w	lr, r3, #4294967295
 80003ba:	f080 8082 	bcs.w	80004c2 <__udivmoddi4+0x2ca>
 80003be:	45a4      	cmp	ip, r4
 80003c0:	d97f      	bls.n	80004c2 <__udivmoddi4+0x2ca>
 80003c2:	3b02      	subs	r3, #2
 80003c4:	443c      	add	r4, r7
 80003c6:	ea43 4000 	orr.w	r0, r3, r0, lsl #16
 80003ca:	eba4 040c 	sub.w	r4, r4, ip
 80003ce:	fba0 ec02 	umull	lr, ip, r0, r2
 80003d2:	4564      	cmp	r4, ip
 80003d4:	4673      	mov	r3, lr
 80003d6:	46e1      	mov	r9, ip
 80003d8:	d362      	bcc.n	80004a0 <__udivmoddi4+0x2a8>
 80003da:	d05f      	beq.n	800049c <__udivmoddi4+0x2a4>
 80003dc:	b15d      	cbz	r5, 80003f6 <__udivmoddi4+0x1fe>
 80003de:	ebb8 0203 	subs.w	r2, r8, r3
 80003e2:	eb64 0409 	sbc.w	r4, r4, r9
 80003e6:	fa04 f606 	lsl.w	r6, r4, r6
 80003ea:	fa22 f301 	lsr.w	r3, r2, r1
 80003ee:	431e      	orrs	r6, r3
 80003f0:	40cc      	lsrs	r4, r1
 80003f2:	e9c5 6400 	strd	r6, r4, [r5]
 80003f6:	2100      	movs	r1, #0
 80003f8:	e74f      	b.n	800029a <__udivmoddi4+0xa2>
 80003fa:	fbb1 fcf2 	udiv	ip, r1, r2
 80003fe:	0c01      	lsrs	r1, r0, #16
 8000400:	ea41 410e 	orr.w	r1, r1, lr, lsl #16
 8000404:	b280      	uxth	r0, r0
 8000406:	ea40 4201 	orr.w	r2, r0, r1, lsl #16
 800040a:	463b      	mov	r3, r7
 800040c:	4638      	mov	r0, r7
 800040e:	463c      	mov	r4, r7
 8000410:	46b8      	mov	r8, r7
 8000412:	46be      	mov	lr, r7
 8000414:	2620      	movs	r6, #32
 8000416:	fbb1 f1f7 	udiv	r1, r1, r7
 800041a:	eba2 0208 	sub.w	r2, r2, r8
 800041e:	ea41 410c 	orr.w	r1, r1, ip, lsl #16
 8000422:	e766      	b.n	80002f2 <__udivmoddi4+0xfa>
 8000424:	4601      	mov	r1, r0
 8000426:	e718      	b.n	800025a <__udivmoddi4+0x62>
 8000428:	4610      	mov	r0, r2
 800042a:	e72c      	b.n	8000286 <__udivmoddi4+0x8e>
 800042c:	f1c6 0220 	rsb	r2, r6, #32
 8000430:	fa2e f302 	lsr.w	r3, lr, r2
 8000434:	40b7      	lsls	r7, r6
 8000436:	40b1      	lsls	r1, r6
 8000438:	fa20 f202 	lsr.w	r2, r0, r2
 800043c:	ea4f 4e17 	mov.w	lr, r7, lsr #16
 8000440:	430a      	orrs	r2, r1
 8000442:	fbb3 f8fe 	udiv	r8, r3, lr
 8000446:	b2bc      	uxth	r4, r7
 8000448:	fb0e 3318 	mls	r3, lr, r8, r3
 800044c:	0c11      	lsrs	r1, r2, #16
 800044e:	ea41 4103 	orr.w	r1, r1, r3, lsl #16
 8000452:	fb08 f904 	mul.w	r9, r8, r4
 8000456:	40b0      	lsls	r0, r6
 8000458:	4589      	cmp	r9, r1
 800045a:	ea4f 4310 	mov.w	r3, r0, lsr #16
 800045e:	b280      	uxth	r0, r0
 8000460:	d93e      	bls.n	80004e0 <__udivmoddi4+0x2e8>
 8000462:	1879      	adds	r1, r7, r1
 8000464:	f108 3cff 	add.w	ip, r8, #4294967295
 8000468:	d201      	bcs.n	800046e <__udivmoddi4+0x276>
 800046a:	4589      	cmp	r9, r1
 800046c:	d81f      	bhi.n	80004ae <__udivmoddi4+0x2b6>
 800046e:	eba1 0109 	sub.w	r1, r1, r9
 8000472:	fbb1 f9fe 	udiv	r9, r1, lr
 8000476:	fb09 f804 	mul.w	r8, r9, r4
 800047a:	fb0e 1119 	mls	r1, lr, r9, r1
 800047e:	b292      	uxth	r2, r2
 8000480:	ea42 4201 	orr.w	r2, r2, r1, lsl #16
 8000484:	4542      	cmp	r2, r8
 8000486:	d229      	bcs.n	80004dc <__udivmoddi4+0x2e4>
 8000488:	18ba      	adds	r2, r7, r2
 800048a:	f109 31ff 	add.w	r1, r9, #4294967295
 800048e:	d2c4      	bcs.n	800041a <__udivmoddi4+0x222>
 8000490:	4542      	cmp	r2, r8
 8000492:	d2c2      	bcs.n	800041a <__udivmoddi4+0x222>
 8000494:	f1a9 0102 	sub.w	r1, r9, #2
 8000498:	443a      	add	r2, r7
 800049a:	e7be      	b.n	800041a <__udivmoddi4+0x222>
 800049c:	45f0      	cmp	r8, lr
 800049e:	d29d      	bcs.n	80003dc <__udivmoddi4+0x1e4>
 80004a0:	ebbe 0302 	subs.w	r3, lr, r2
 80004a4:	eb6c 0c07 	sbc.w	ip, ip, r7
 80004a8:	3801      	subs	r0, #1
 80004aa:	46e1      	mov	r9, ip
 80004ac:	e796      	b.n	80003dc <__udivmoddi4+0x1e4>
 80004ae:	eba7 0909 	sub.w	r9, r7, r9
 80004b2:	4449      	add	r1, r9
 80004b4:	f1a8 0c02 	sub.w	ip, r8, #2
 80004b8:	fbb1 f9fe 	udiv	r9, r1, lr
 80004bc:	fb09 f804 	mul.w	r8, r9, r4
 80004c0:	e7db      	b.n	800047a <__udivmoddi4+0x282>
 80004c2:	4673      	mov	r3, lr
 80004c4:	e77f      	b.n	80003c6 <__udivmoddi4+0x1ce>
 80004c6:	4650      	mov	r0, sl
 80004c8:	e766      	b.n	8000398 <__udivmoddi4+0x1a0>
 80004ca:	4608      	mov	r0, r1
 80004cc:	e6fd      	b.n	80002ca <__udivmoddi4+0xd2>
 80004ce:	443b      	add	r3, r7
 80004d0:	3a02      	subs	r2, #2
 80004d2:	e733      	b.n	800033c <__udivmoddi4+0x144>
 80004d4:	f1ac 0c02 	sub.w	ip, ip, #2
 80004d8:	443b      	add	r3, r7
 80004da:	e71c      	b.n	8000316 <__udivmoddi4+0x11e>
 80004dc:	4649      	mov	r1, r9
 80004de:	e79c      	b.n	800041a <__udivmoddi4+0x222>
 80004e0:	eba1 0109 	sub.w	r1, r1, r9
 80004e4:	46c4      	mov	ip, r8
 80004e6:	fbb1 f9fe 	udiv	r9, r1, lr
 80004ea:	fb09 f804 	mul.w	r8, r9, r4
 80004ee:	e7c4      	b.n	800047a <__udivmoddi4+0x282>

080004f0 <__aeabi_idiv0>:
 80004f0:	4770      	bx	lr
 80004f2:	bf00      	nop

080004f4 <MX_GPIO_Init>:
 80004f4:	b510      	push	{r4, lr}
 80004f6:	b088      	sub	sp, #32
 80004f8:	2214      	movs	r2, #20
 80004fa:	2100      	movs	r1, #0
 80004fc:	a803      	add	r0, sp, #12
 80004fe:	f004 fce9 	bl	8004ed4 <memset>
 8000502:	4b15      	ldr	r3, [pc, #84]	@ (8000558 <MX_GPIO_Init+0x64>)
 8000504:	4c15      	ldr	r4, [pc, #84]	@ (800055c <MX_GPIO_Init+0x68>)
 8000506:	2100      	movs	r1, #0
 8000508:	9101      	str	r1, [sp, #4]
 800050a:	6b1a      	ldr	r2, [r3, #48]	@ 0x30
 800050c:	f042 0204 	orr.w	r2, r2, #4
 8000510:	631a      	str	r2, [r3, #48]	@ 0x30
 8000512:	6b1a      	ldr	r2, [r3, #48]	@ 0x30
 8000514:	f002 0204 	and.w	r2, r2, #4
 8000518:	9201      	str	r2, [sp, #4]
 800051a:	9a01      	ldr	r2, [sp, #4]
 800051c:	9102      	str	r1, [sp, #8]
 800051e:	6b1a      	ldr	r2, [r3, #48]	@ 0x30
 8000520:	f042 0201 	orr.w	r2, r2, #1
 8000524:	631a      	str	r2, [r3, #48]	@ 0x30
 8000526:	6b1b      	ldr	r3, [r3, #48]	@ 0x30
 8000528:	f003 0301 	and.w	r3, r3, #1
 800052c:	9302      	str	r3, [sp, #8]
 800052e:	4620      	mov	r0, r4
 8000530:	2201      	movs	r2, #1
 8000532:	f44f 7100 	mov.w	r1, #512	@ 0x200
 8000536:	9b02      	ldr	r3, [sp, #8]
 8000538:	f000 ffc6 	bl	80014c8 <HAL_GPIO_WritePin>
 800053c:	f44f 7200 	mov.w	r2, #512	@ 0x200
 8000540:	2301      	movs	r3, #1
 8000542:	e9cd 2303 	strd	r2, r3, [sp, #12]
 8000546:	9305      	str	r3, [sp, #20]
 8000548:	a903      	add	r1, sp, #12
 800054a:	2302      	movs	r3, #2
 800054c:	4620      	mov	r0, r4
 800054e:	9306      	str	r3, [sp, #24]
 8000550:	f000 fedc 	bl	800130c <HAL_GPIO_Init>
 8000554:	b008      	add	sp, #32
 8000556:	bd10      	pop	{r4, pc}
 8000558:	40023800 	.word	0x40023800
 800055c:	40020800 	.word	0x40020800

08000560 <MX_USART1_UART_Init>:
 8000560:	b508      	push	{r3, lr}
 8000562:	4809      	ldr	r0, [pc, #36]	@ (8000588 <MX_USART1_UART_Init+0x28>)
 8000564:	4a09      	ldr	r2, [pc, #36]	@ (800058c <MX_USART1_UART_Init+0x2c>)
 8000566:	4b0a      	ldr	r3, [pc, #40]	@ (8000590 <MX_USART1_UART_Init+0x30>)
 8000568:	e9c0 2300 	strd	r2, r3, [r0]
 800056c:	2300      	movs	r3, #0
 800056e:	220c      	movs	r2, #12
 8000570:	e9c0 3302 	strd	r3, r3, [r0, #8]
 8000574:	e9c0 2305 	strd	r2, r3, [r0, #20]
 8000578:	6103      	str	r3, [r0, #16]
 800057a:	61c3      	str	r3, [r0, #28]
 800057c:	f001 fd46 	bl	800200c <HAL_UART_Init>
 8000580:	b108      	cbz	r0, 8000586 <MX_USART1_UART_Init+0x26>
 8000582:	b672      	cpsid	i
 8000584:	e7fe      	b.n	8000584 <MX_USART1_UART_Init+0x24>
 8000586:	bd08      	pop	{r3, pc}
 8000588:	200014e0 	.word	0x200014e0
 800058c:	40011000 	.word	0x40011000
 8000590:	0003d090 	.word	0x0003d090

08000594 <crc32b>:
 8000594:	b530      	push	{r4, r5, lr}
 8000596:	4d09      	ldr	r5, [pc, #36]	@ (80005bc <crc32b+0x28>)
 8000598:	440a      	add	r2, r1
 800059a:	428a      	cmp	r2, r1
 800059c:	d101      	bne.n	80005a2 <crc32b+0xe>
 800059e:	43c0      	mvns	r0, r0
 80005a0:	bd30      	pop	{r4, r5, pc}
 80005a2:	f811 3b01 	ldrb.w	r3, [r1], #1
 80005a6:	4058      	eors	r0, r3
 80005a8:	2308      	movs	r3, #8
 80005aa:	f340 0400 	sbfx	r4, r0, #0, #1
 80005ae:	402c      	ands	r4, r5
 80005b0:	3b01      	subs	r3, #1
 80005b2:	ea84 0050 	eor.w	r0, r4, r0, lsr #1
 80005b6:	d1f8      	bne.n	80005aa <crc32b+0x16>
 80005b8:	e7ef      	b.n	800059a <crc32b+0x6>
 80005ba:	bf00      	nop
 80005bc:	edb88320 	.word	0xedb88320

080005c0 <uart_printf>:
 80005c0:	b40f      	push	{r0, r1, r2, r3}
 80005c2:	e92d 43f0 	stmdb	sp!, {r4, r5, r6, r7, r8, r9, lr}
 80005c6:	b0cb      	sub	sp, #300	@ 0x12c
 80005c8:	ab52      	add	r3, sp, #328	@ 0x148
 80005ca:	aa0a      	add	r2, sp, #40	@ 0x28
 80005cc:	f853 4b04 	ldr.w	r4, [r3], #4
 80005d0:	9301      	str	r3, [sp, #4]
 80005d2:	4611      	mov	r1, r2
 80005d4:	f814 3b01 	ldrb.w	r3, [r4], #1
 80005d8:	b98b      	cbnz	r3, 80005fe <uart_printf+0x3e>
 80005da:	7013      	strb	r3, [r2, #0]
 80005dc:	1a52      	subs	r2, r2, r1
 80005de:	f04f 33ff 	mov.w	r3, #4294967295
 80005e2:	b292      	uxth	r2, r2
 80005e4:	4850      	ldr	r0, [pc, #320]	@ (8000728 <uart_printf+0x168>)
 80005e6:	f001 fd40 	bl	800206a <HAL_UART_Transmit>
 80005ea:	4850      	ldr	r0, [pc, #320]	@ (800072c <uart_printf+0x16c>)
 80005ec:	f44f 5100 	mov.w	r1, #8192	@ 0x2000
 80005f0:	f000 ff6f 	bl	80014d2 <HAL_GPIO_TogglePin>
 80005f4:	b04b      	add	sp, #300	@ 0x12c
 80005f6:	e8bd 43f0 	ldmia.w	sp!, {r4, r5, r6, r7, r8, r9, lr}
 80005fa:	b004      	add	sp, #16
 80005fc:	4770      	bx	lr
 80005fe:	2b25      	cmp	r3, #37	@ 0x25
 8000600:	d13e      	bne.n	8000680 <uart_printf+0xc0>
 8000602:	2500      	movs	r5, #0
 8000604:	f814 3b01 	ldrb.w	r3, [r4], #1
 8000608:	2b69      	cmp	r3, #105	@ 0x69
 800060a:	d823      	bhi.n	8000654 <uart_printf+0x94>
 800060c:	2b61      	cmp	r3, #97	@ 0x61
 800060e:	d80b      	bhi.n	8000628 <uart_printf+0x68>
 8000610:	2b25      	cmp	r3, #37	@ 0x25
 8000612:	d035      	beq.n	8000680 <uart_printf+0xc0>
 8000614:	f1a3 0030 	sub.w	r0, r3, #48	@ 0x30
 8000618:	2809      	cmp	r0, #9
 800061a:	d8db      	bhi.n	80005d4 <uart_printf+0x14>
 800061c:	200a      	movs	r0, #10
 800061e:	fb00 3305 	mla	r3, r0, r5, r3
 8000622:	f1a3 0530 	sub.w	r5, r3, #48	@ 0x30
 8000626:	e7ed      	b.n	8000604 <uart_printf+0x44>
 8000628:	3b62      	subs	r3, #98	@ 0x62
 800062a:	2b07      	cmp	r3, #7
 800062c:	d8d2      	bhi.n	80005d4 <uart_printf+0x14>
 800062e:	a001      	add	r0, pc, #4	@ (adr r0, 8000634 <uart_printf+0x74>)
 8000630:	f850 f023 	ldr.w	pc, [r0, r3, lsl #2]
 8000634:	0800070f 	.word	0x0800070f
 8000638:	08000679 	.word	0x08000679
 800063c:	08000687 	.word	0x08000687
 8000640:	080005d5 	.word	0x080005d5
 8000644:	080005d5 	.word	0x080005d5
 8000648:	080005d5 	.word	0x080005d5
 800064c:	080005d5 	.word	0x080005d5
 8000650:	08000687 	.word	0x08000687
 8000654:	2b75      	cmp	r3, #117	@ 0x75
 8000656:	d050      	beq.n	80006fa <uart_printf+0x13a>
 8000658:	2b78      	cmp	r3, #120	@ 0x78
 800065a:	d056      	beq.n	800070a <uart_printf+0x14a>
 800065c:	2b73      	cmp	r3, #115	@ 0x73
 800065e:	d1b9      	bne.n	80005d4 <uart_printf+0x14>
 8000660:	9b01      	ldr	r3, [sp, #4]
 8000662:	1d18      	adds	r0, r3, #4
 8000664:	681b      	ldr	r3, [r3, #0]
 8000666:	9001      	str	r0, [sp, #4]
 8000668:	3b01      	subs	r3, #1
 800066a:	f813 0f01 	ldrb.w	r0, [r3, #1]!
 800066e:	2800      	cmp	r0, #0
 8000670:	d0b0      	beq.n	80005d4 <uart_printf+0x14>
 8000672:	f802 0b01 	strb.w	r0, [r2], #1
 8000676:	e7f8      	b.n	800066a <uart_printf+0xaa>
 8000678:	9b01      	ldr	r3, [sp, #4]
 800067a:	1d18      	adds	r0, r3, #4
 800067c:	681b      	ldr	r3, [r3, #0]
 800067e:	9001      	str	r0, [sp, #4]
 8000680:	f802 3b01 	strb.w	r3, [r2], #1
 8000684:	e7a6      	b.n	80005d4 <uart_printf+0x14>
 8000686:	9b01      	ldr	r3, [sp, #4]
 8000688:	681f      	ldr	r7, [r3, #0]
 800068a:	1d18      	adds	r0, r3, #4
 800068c:	2f00      	cmp	r7, #0
 800068e:	9001      	str	r0, [sp, #4]
 8000690:	bfb4      	ite	lt
 8000692:	427e      	neglt	r6, r7
 8000694:	463e      	movge	r6, r7
 8000696:	200a      	movs	r0, #10
 8000698:	f10d 0e08 	add.w	lr, sp, #8
 800069c:	46f4      	mov	ip, lr
 800069e:	fbb6 f9f0 	udiv	r9, r6, r0
 80006a2:	fb00 6319 	mls	r3, r0, r9, r6
 80006a6:	f103 0830 	add.w	r8, r3, #48	@ 0x30
 80006aa:	f1b8 0f39 	cmp.w	r8, #57	@ 0x39
 80006ae:	bf88      	it	hi
 80006b0:	f103 0837 	addhi.w	r8, r3, #55	@ 0x37
 80006b4:	4673      	mov	r3, lr
 80006b6:	42b0      	cmp	r0, r6
 80006b8:	f803 8b01 	strb.w	r8, [r3], #1
 80006bc:	d929      	bls.n	8000712 <uart_printf+0x152>
 80006be:	2f00      	cmp	r7, #0
 80006c0:	bfbe      	ittt	lt
 80006c2:	202d      	movlt	r0, #45	@ 0x2d
 80006c4:	7018      	strblt	r0, [r3, #0]
 80006c6:	f10e 0302 	addlt.w	r3, lr, #2
 80006ca:	eba3 000c 	sub.w	r0, r3, ip
 80006ce:	1a2d      	subs	r5, r5, r0
 80006d0:	1957      	adds	r7, r2, r5
 80006d2:	4610      	mov	r0, r2
 80006d4:	f04f 0e20 	mov.w	lr, #32
 80006d8:	1a3e      	subs	r6, r7, r0
 80006da:	2e00      	cmp	r6, #0
 80006dc:	dc1c      	bgt.n	8000718 <uart_printf+0x158>
 80006de:	2d00      	cmp	r5, #0
 80006e0:	bfa8      	it	ge
 80006e2:	1952      	addge	r2, r2, r5
 80006e4:	1e55      	subs	r5, r2, #1
 80006e6:	4618      	mov	r0, r3
 80006e8:	4560      	cmp	r0, ip
 80006ea:	d818      	bhi.n	800071e <uart_printf+0x15e>
 80006ec:	eba3 000c 	sub.w	r0, r3, ip
 80006f0:	4563      	cmp	r3, ip
 80006f2:	bf38      	it	cc
 80006f4:	2000      	movcc	r0, #0
 80006f6:	4402      	add	r2, r0
 80006f8:	e76c      	b.n	80005d4 <uart_printf+0x14>
 80006fa:	2002      	movs	r0, #2
 80006fc:	3008      	adds	r0, #8
 80006fe:	9b01      	ldr	r3, [sp, #4]
 8000700:	1d1e      	adds	r6, r3, #4
 8000702:	9601      	str	r6, [sp, #4]
 8000704:	2700      	movs	r7, #0
 8000706:	681e      	ldr	r6, [r3, #0]
 8000708:	e7c6      	b.n	8000698 <uart_printf+0xd8>
 800070a:	2008      	movs	r0, #8
 800070c:	e7f6      	b.n	80006fc <uart_printf+0x13c>
 800070e:	2002      	movs	r0, #2
 8000710:	e7f5      	b.n	80006fe <uart_printf+0x13e>
 8000712:	469e      	mov	lr, r3
 8000714:	464e      	mov	r6, r9
 8000716:	e7c2      	b.n	800069e <uart_printf+0xde>
 8000718:	f800 eb01 	strb.w	lr, [r0], #1
 800071c:	e7dc      	b.n	80006d8 <uart_printf+0x118>
 800071e:	f810 6d01 	ldrb.w	r6, [r0, #-1]!
 8000722:	f805 6f01 	strb.w	r6, [r5, #1]!
 8000726:	e7df      	b.n	80006e8 <uart_printf+0x128>
 8000728:	200014e0 	.word	0x200014e0
 800072c:	40020000 	.word	0x40020000

08000730 <set_magic_key>:
 8000730:	b510      	push	{r4, lr}
 8000732:	4604      	mov	r4, r0
 8000734:	f000 fed6 	bl	80014e4 <HAL_PWR_EnableBkUpAccess>
 8000738:	4622      	mov	r2, r4
 800073a:	4804      	ldr	r0, [pc, #16]	@ (800074c <set_magic_key+0x1c>)
 800073c:	2113      	movs	r1, #19
 800073e:	f001 fb40 	bl	8001dc2 <HAL_RTCEx_BKUPWrite>
 8000742:	e8bd 4010 	ldmia.w	sp!, {r4, lr}
 8000746:	f000 bedb 	b.w	8001500 <HAL_PWR_DisableBkUpAccess>
 800074a:	bf00      	nop
 800074c:	20001580 	.word	0x20001580

08000750 <compareFlashToFile>:
 8000750:	e92d 4ff0 	stmdb	sp!, {r4, r5, r6, r7, r8, r9, sl, fp, lr}
 8000754:	4830      	ldr	r0, [pc, #192]	@ (8000818 <compareFlashToFile+0xc8>)
 8000756:	f8df a0e0 	ldr.w	sl, [pc, #224]	@ 8000838 <compareFlashToFile+0xe8>
 800075a:	f8df 90c8 	ldr.w	r9, [pc, #200]	@ 8000824 <compareFlashToFile+0xd4>
 800075e:	f8df b0b8 	ldr.w	fp, [pc, #184]	@ 8000818 <compareFlashToFile+0xc8>
 8000762:	b085      	sub	sp, #20
 8000764:	2200      	movs	r2, #0
 8000766:	2300      	movs	r3, #0
 8000768:	f004 f884 	bl	8004874 <f_lseek>
 800076c:	2500      	movs	r5, #0
 800076e:	4604      	mov	r4, r0
 8000770:	462e      	mov	r6, r5
 8000772:	462f      	mov	r7, r5
 8000774:	f8da 3000 	ldr.w	r3, [sl]
 8000778:	42bb      	cmp	r3, r7
 800077a:	d81d      	bhi.n	80007b8 <compareFlashToFile+0x68>
 800077c:	2c00      	cmp	r4, #0
 800077e:	d03c      	beq.n	80007fa <compareFlashToFile+0xaa>
 8000780:	4826      	ldr	r0, [pc, #152]	@ (800081c <compareFlashToFile+0xcc>)
 8000782:	4621      	mov	r1, r4
 8000784:	f7ff ff1c 	bl	80005c0 <uart_printf>
 8000788:	2002      	movs	r0, #2
 800078a:	b005      	add	sp, #20
 800078c:	e8bd 8ff0 	ldmia.w	sp!, {r4, r5, r6, r7, r8, r9, sl, fp, pc}
 8000790:	f1b8 0f00 	cmp.w	r8, #0
 8000794:	d12a      	bne.n	80007ec <compareFlashToFile+0x9c>
 8000796:	f811 e003 	ldrb.w	lr, [r1, r3]
 800079a:	f810 cb01 	ldrb.w	ip, [r0], #1
 800079e:	3301      	adds	r3, #1
 80007a0:	45e6      	cmp	lr, ip
 80007a2:	bf18      	it	ne
 80007a4:	2401      	movne	r4, #1
 80007a6:	e01f      	b.n	80007e8 <compareFlashToFile+0x98>
 80007a8:	481d      	ldr	r0, [pc, #116]	@ (8000820 <compareFlashToFile+0xd0>)
 80007aa:	f7ff ff09 	bl	80005c0 <uart_printf>
 80007ae:	9b03      	ldr	r3, [sp, #12]
 80007b0:	4625      	mov	r5, r4
 80007b2:	441f      	add	r7, r3
 80007b4:	4644      	mov	r4, r8
 80007b6:	e7dd      	b.n	8000774 <compareFlashToFile+0x24>
 80007b8:	2c00      	cmp	r4, #0
 80007ba:	d1e1      	bne.n	8000780 <compareFlashToFile+0x30>
 80007bc:	ab03      	add	r3, sp, #12
 80007be:	f44f 5280 	mov.w	r2, #4096	@ 0x1000
 80007c2:	4649      	mov	r1, r9
 80007c4:	4658      	mov	r0, fp
 80007c6:	f003 fec9 	bl	800455c <f_read>
 80007ca:	9a03      	ldr	r2, [sp, #12]
 80007cc:	9201      	str	r2, [sp, #4]
 80007ce:	4649      	mov	r1, r9
 80007d0:	4680      	mov	r8, r0
 80007d2:	43f0      	mvns	r0, r6
 80007d4:	f7ff fede 	bl	8000594 <crc32b>
 80007d8:	f107 6100 	add.w	r1, r7, #134217728	@ 0x8000000
 80007dc:	4606      	mov	r6, r0
 80007de:	9a01      	ldr	r2, [sp, #4]
 80007e0:	4810      	ldr	r0, [pc, #64]	@ (8000824 <compareFlashToFile+0xd4>)
 80007e2:	4623      	mov	r3, r4
 80007e4:	f501 3180 	add.w	r1, r1, #65536	@ 0x10000
 80007e8:	429a      	cmp	r2, r3
 80007ea:	d1d1      	bne.n	8000790 <compareFlashToFile+0x40>
 80007ec:	2c00      	cmp	r4, #0
 80007ee:	d1db      	bne.n	80007a8 <compareFlashToFile+0x58>
 80007f0:	480d      	ldr	r0, [pc, #52]	@ (8000828 <compareFlashToFile+0xd8>)
 80007f2:	f7ff fee5 	bl	80005c0 <uart_printf>
 80007f6:	462c      	mov	r4, r5
 80007f8:	e7d9      	b.n	80007ae <compareFlashToFile+0x5e>
 80007fa:	b125      	cbz	r5, 8000806 <compareFlashToFile+0xb6>
 80007fc:	480b      	ldr	r0, [pc, #44]	@ (800082c <compareFlashToFile+0xdc>)
 80007fe:	f7ff fedf 	bl	80005c0 <uart_printf>
 8000802:	4628      	mov	r0, r5
 8000804:	e7c1      	b.n	800078a <compareFlashToFile+0x3a>
 8000806:	480a      	ldr	r0, [pc, #40]	@ (8000830 <compareFlashToFile+0xe0>)
 8000808:	f7ff feda 	bl	80005c0 <uart_printf>
 800080c:	4809      	ldr	r0, [pc, #36]	@ (8000834 <compareFlashToFile+0xe4>)
 800080e:	4631      	mov	r1, r6
 8000810:	f7ff fed6 	bl	80005c0 <uart_printf>
 8000814:	e7f5      	b.n	8000802 <compareFlashToFile+0xb2>
 8000816:	bf00      	nop
 8000818:	20001050 	.word	0x20001050
 800081c:	08004f48 	.word	0x08004f48
 8000820:	08004f44 	.word	0x08004f44
 8000824:	20000044 	.word	0x20000044
 8000828:	08004f46 	.word	0x08004f46
 800082c:	08004f66 	.word	0x08004f66
 8000830:	08004f9f 	.word	0x08004f9f
 8000834:	08004fdc 	.word	0x08004fdc
 8000838:	20001044 	.word	0x20001044

0800083c <CopyFileToFlashMemory>:
 800083c:	e92d 4ff7 	stmdb	sp!, {r0, r1, r2, r4, r5, r6, r7, r8, r9, sl, fp, lr}
 8000840:	f000 fcbc 	bl	80011bc <HAL_FLASH_Unlock>
 8000844:	4844      	ldr	r0, [pc, #272]	@ (8000958 <CopyFileToFlashMemory+0x11c>)
 8000846:	f8df 8130 	ldr.w	r8, [pc, #304]	@ 8000978 <CopyFileToFlashMemory+0x13c>
 800084a:	f8df 9130 	ldr.w	r9, [pc, #304]	@ 800097c <CopyFileToFlashMemory+0x140>
 800084e:	2200      	movs	r2, #0
 8000850:	2300      	movs	r3, #0
 8000852:	f004 f80f 	bl	8004874 <f_lseek>
 8000856:	2504      	movs	r5, #4
 8000858:	4604      	mov	r4, r0
 800085a:	2700      	movs	r7, #0
 800085c:	f44f 3680 	mov.w	r6, #65536	@ 0x10000
 8000860:	f8d8 3000 	ldr.w	r3, [r8]
 8000864:	42bb      	cmp	r3, r7
 8000866:	d814      	bhi.n	8000892 <CopyFileToFlashMemory+0x56>
 8000868:	493c      	ldr	r1, [pc, #240]	@ (800095c <CopyFileToFlashMemory+0x120>)
 800086a:	483d      	ldr	r0, [pc, #244]	@ (8000960 <CopyFileToFlashMemory+0x124>)
 800086c:	f8df a0f8 	ldr.w	sl, [pc, #248]	@ 8000968 <CopyFileToFlashMemory+0x12c>
 8000870:	f8df b10c 	ldr.w	fp, [pc, #268]	@ 8000980 <CopyFileToFlashMemory+0x144>
 8000874:	f7ff fea4 	bl	80005c0 <uart_printf>
 8000878:	2500      	movs	r5, #0
 800087a:	462f      	mov	r7, r5
 800087c:	f8d8 3000 	ldr.w	r3, [r8]
 8000880:	42bb      	cmp	r3, r7
 8000882:	d84a      	bhi.n	800091a <CopyFileToFlashMemory+0xde>
 8000884:	f000 fcac 	bl	80011e0 <HAL_FLASH_Lock>
 8000888:	2c00      	cmp	r4, #0
 800088a:	d04b      	beq.n	8000924 <CopyFileToFlashMemory+0xe8>
 800088c:	4835      	ldr	r0, [pc, #212]	@ (8000964 <CopyFileToFlashMemory+0x128>)
 800088e:	4621      	mov	r1, r4
 8000890:	e058      	b.n	8000944 <CopyFileToFlashMemory+0x108>
 8000892:	2c00      	cmp	r4, #0
 8000894:	d1e8      	bne.n	8000868 <CopyFileToFlashMemory+0x2c>
 8000896:	0ab2      	lsrs	r2, r6, #10
 8000898:	4629      	mov	r1, r5
 800089a:	4648      	mov	r0, r9
 800089c:	f7ff fe90 	bl	80005c0 <uart_printf>
 80008a0:	4628      	mov	r0, r5
 80008a2:	2102      	movs	r1, #2
 80008a4:	4437      	add	r7, r6
 80008a6:	f000 fd13 	bl	80012d0 <FLASH_Erase_Sector>
 80008aa:	3501      	adds	r5, #1
 80008ac:	f44f 3600 	mov.w	r6, #131072	@ 0x20000
 80008b0:	e7d6      	b.n	8000860 <CopyFileToFlashMemory+0x24>
 80008b2:	492d      	ldr	r1, [pc, #180]	@ (8000968 <CopyFileToFlashMemory+0x12c>)
 80008b4:	4828      	ldr	r0, [pc, #160]	@ (8000958 <CopyFileToFlashMemory+0x11c>)
 80008b6:	ab01      	add	r3, sp, #4
 80008b8:	f44f 5280 	mov.w	r2, #4096	@ 0x1000
 80008bc:	f003 fe4e 	bl	800455c <f_read>
 80008c0:	9e01      	ldr	r6, [sp, #4]
 80008c2:	4929      	ldr	r1, [pc, #164]	@ (8000968 <CopyFileToFlashMemory+0x12c>)
 80008c4:	4604      	mov	r4, r0
 80008c6:	4632      	mov	r2, r6
 80008c8:	43e8      	mvns	r0, r5
 80008ca:	f7ff fe63 	bl	8000594 <crc32b>
 80008ce:	f5b6 5f80 	cmp.w	r6, #4096	@ 0x1000
 80008d2:	4605      	mov	r5, r0
 80008d4:	d207      	bcs.n	80008e6 <CopyFileToFlashMemory+0xaa>
 80008d6:	4272      	negs	r2, r6
 80008d8:	f002 0203 	and.w	r2, r2, #3
 80008dc:	21ff      	movs	r1, #255	@ 0xff
 80008de:	eb0a 0006 	add.w	r0, sl, r6
 80008e2:	f004 faf7 	bl	8004ed4 <memset>
 80008e6:	f107 6900 	add.w	r9, r7, #134217728	@ 0x8000000
 80008ea:	2600      	movs	r6, #0
 80008ec:	f509 3980 	add.w	r9, r9, #65536	@ 0x10000
 80008f0:	9b01      	ldr	r3, [sp, #4]
 80008f2:	42b3      	cmp	r3, r6
 80008f4:	d804      	bhi.n	8000900 <CopyFileToFlashMemory+0xc4>
 80008f6:	4658      	mov	r0, fp
 80008f8:	441f      	add	r7, r3
 80008fa:	f7ff fe61 	bl	80005c0 <uart_printf>
 80008fe:	e7bd      	b.n	800087c <CopyFileToFlashMemory+0x40>
 8000900:	2c00      	cmp	r4, #0
 8000902:	d1f8      	bne.n	80008f6 <CopyFileToFlashMemory+0xba>
 8000904:	f85a 2006 	ldr.w	r2, [sl, r6]
 8000908:	4623      	mov	r3, r4
 800090a:	eb09 0106 	add.w	r1, r9, r6
 800090e:	2002      	movs	r0, #2
 8000910:	f000 fc98 	bl	8001244 <HAL_FLASH_Program>
 8000914:	3604      	adds	r6, #4
 8000916:	4604      	mov	r4, r0
 8000918:	e7ea      	b.n	80008f0 <CopyFileToFlashMemory+0xb4>
 800091a:	2c00      	cmp	r4, #0
 800091c:	d0c9      	beq.n	80008b2 <CopyFileToFlashMemory+0x76>
 800091e:	f000 fc5f 	bl	80011e0 <HAL_FLASH_Lock>
 8000922:	e7b3      	b.n	800088c <CopyFileToFlashMemory+0x50>
 8000924:	f8d8 2000 	ldr.w	r2, [r8]
 8000928:	490c      	ldr	r1, [pc, #48]	@ (800095c <CopyFileToFlashMemory+0x120>)
 800092a:	f04f 30ff 	mov.w	r0, #4294967295
 800092e:	f7ff fe31 	bl	8000594 <crc32b>
 8000932:	4285      	cmp	r5, r0
 8000934:	4606      	mov	r6, r0
 8000936:	d00b      	beq.n	8000950 <CopyFileToFlashMemory+0x114>
 8000938:	480c      	ldr	r0, [pc, #48]	@ (800096c <CopyFileToFlashMemory+0x130>)
 800093a:	f7ff fe41 	bl	80005c0 <uart_printf>
 800093e:	2401      	movs	r4, #1
 8000940:	480b      	ldr	r0, [pc, #44]	@ (8000970 <CopyFileToFlashMemory+0x134>)
 8000942:	4631      	mov	r1, r6
 8000944:	f7ff fe3c 	bl	80005c0 <uart_printf>
 8000948:	4620      	mov	r0, r4
 800094a:	b003      	add	sp, #12
 800094c:	e8bd 8ff0 	ldmia.w	sp!, {r4, r5, r6, r7, r8, r9, sl, fp, pc}
 8000950:	4808      	ldr	r0, [pc, #32]	@ (8000974 <CopyFileToFlashMemory+0x138>)
 8000952:	f7ff fe35 	bl	80005c0 <uart_printf>
 8000956:	e7f3      	b.n	8000940 <CopyFileToFlashMemory+0x104>
 8000958:	20001050 	.word	0x20001050
 800095c:	08010000 	.word	0x08010000
 8000960:	0800501e 	.word	0x0800501e
 8000964:	08005062 	.word	0x08005062
 8000968:	20000044 	.word	0x20000044
 800096c:	08005043 	.word	0x08005043
 8000970:	08004fdc 	.word	0x08004fdc
 8000974:	08005055 	.word	0x08005055
 8000978:	20001044 	.word	0x20001044
 800097c:	08004ff0 	.word	0x08004ff0
 8000980:	08004f46 	.word	0x08004f46

08000984 <SystemClock_Config>:
 8000984:	b530      	push	{r4, r5, lr}
 8000986:	2400      	movs	r4, #0
 8000988:	b095      	sub	sp, #84	@ 0x54
 800098a:	2214      	movs	r2, #20
 800098c:	4621      	mov	r1, r4
 800098e:	a803      	add	r0, sp, #12
 8000990:	e9cd 4409 	strd	r4, r4, [sp, #36]	@ 0x24
 8000994:	f004 fa9e 	bl	8004ed4 <memset>
 8000998:	4b1f      	ldr	r3, [pc, #124]	@ (8000a18 <SystemClock_Config+0x94>)
 800099a:	9401      	str	r4, [sp, #4]
 800099c:	6c1a      	ldr	r2, [r3, #64]	@ 0x40
 800099e:	f042 5280 	orr.w	r2, r2, #268435456	@ 0x10000000
 80009a2:	641a      	str	r2, [r3, #64]	@ 0x40
 80009a4:	6c1b      	ldr	r3, [r3, #64]	@ 0x40
 80009a6:	f003 5380 	and.w	r3, r3, #268435456	@ 0x10000000
 80009aa:	9301      	str	r3, [sp, #4]
 80009ac:	9b01      	ldr	r3, [sp, #4]
 80009ae:	4b1b      	ldr	r3, [pc, #108]	@ (8000a1c <SystemClock_Config+0x98>)
 80009b0:	9402      	str	r4, [sp, #8]
 80009b2:	681a      	ldr	r2, [r3, #0]
 80009b4:	f442 4280 	orr.w	r2, r2, #16384	@ 0x4000
 80009b8:	601a      	str	r2, [r3, #0]
 80009ba:	681b      	ldr	r3, [r3, #0]
 80009bc:	f403 4380 	and.w	r3, r3, #16384	@ 0x4000
 80009c0:	9302      	str	r3, [sp, #8]
 80009c2:	9b02      	ldr	r3, [sp, #8]
 80009c4:	230a      	movs	r3, #10
 80009c6:	9308      	str	r3, [sp, #32]
 80009c8:	2210      	movs	r2, #16
 80009ca:	2301      	movs	r3, #1
 80009cc:	2008      	movs	r0, #8
 80009ce:	e9cd 320b 	strd	r3, r2, [sp, #44]	@ 0x2c
 80009d2:	930d      	str	r3, [sp, #52]	@ 0x34
 80009d4:	23a8      	movs	r3, #168	@ 0xa8
 80009d6:	e9cd 0310 	strd	r0, r3, [sp, #64]	@ 0x40
 80009da:	2502      	movs	r5, #2
 80009dc:	2304      	movs	r3, #4
 80009de:	a808      	add	r0, sp, #32
 80009e0:	e9cd 540e 	strd	r5, r4, [sp, #56]	@ 0x38
 80009e4:	9512      	str	r5, [sp, #72]	@ 0x48
 80009e6:	9313      	str	r3, [sp, #76]	@ 0x4c
 80009e8:	f000 fd98 	bl	800151c <HAL_RCC_OscConfig>
 80009ec:	b108      	cbz	r0, 80009f2 <SystemClock_Config+0x6e>
 80009ee:	b672      	cpsid	i
 80009f0:	e7fe      	b.n	80009f0 <SystemClock_Config+0x6c>
 80009f2:	230f      	movs	r3, #15
 80009f4:	e9cd 3503 	strd	r3, r5, [sp, #12]
 80009f8:	2280      	movs	r2, #128	@ 0x80
 80009fa:	f44f 5380 	mov.w	r3, #4096	@ 0x1000
 80009fe:	4629      	mov	r1, r5
 8000a00:	a803      	add	r0, sp, #12
 8000a02:	e9cd 2305 	strd	r2, r3, [sp, #20]
 8000a06:	9307      	str	r3, [sp, #28]
 8000a08:	f000 ff64 	bl	80018d4 <HAL_RCC_ClockConfig>
 8000a0c:	b108      	cbz	r0, 8000a12 <SystemClock_Config+0x8e>
 8000a0e:	b672      	cpsid	i
 8000a10:	e7fe      	b.n	8000a10 <SystemClock_Config+0x8c>
 8000a12:	b015      	add	sp, #84	@ 0x54
 8000a14:	bd30      	pop	{r4, r5, pc}
 8000a16:	bf00      	nop
 8000a18:	40023800 	.word	0x40023800
 8000a1c:	40007000 	.word	0x40007000

08000a20 <main>:
 8000a20:	b5f0      	push	{r4, r5, r6, r7, lr}
 8000a22:	b087      	sub	sp, #28
 8000a24:	f000 fab6 	bl	8000f94 <HAL_Init>
 8000a28:	f7ff ffac 	bl	8000984 <SystemClock_Config>
 8000a2c:	f7ff fd62 	bl	80004f4 <MX_GPIO_Init>
 8000a30:	489e      	ldr	r0, [pc, #632]	@ (8000cac <main+0x28c>)
 8000a32:	499f      	ldr	r1, [pc, #636]	@ (8000cb0 <main+0x290>)
 8000a34:	f44f 7382 	mov.w	r3, #260	@ 0x104
 8000a38:	e9c0 1300 	strd	r1, r3, [r0]
 8000a3c:	2300      	movs	r3, #0
 8000a3e:	e9c0 3302 	strd	r3, r3, [r0, #8]
 8000a42:	e9c0 3304 	strd	r3, r3, [r0, #16]
 8000a46:	e9c0 3308 	strd	r3, r3, [r0, #32]
 8000a4a:	f44f 7400 	mov.w	r4, #512	@ 0x200
 8000a4e:	2208      	movs	r2, #8
 8000a50:	6283      	str	r3, [r0, #40]	@ 0x28
 8000a52:	230a      	movs	r3, #10
 8000a54:	e9c0 4206 	strd	r4, r2, [r0, #24]
 8000a58:	62c3      	str	r3, [r0, #44]	@ 0x2c
 8000a5a:	f001 f9bc 	bl	8001dd6 <HAL_SPI_Init>
 8000a5e:	4604      	mov	r4, r0
 8000a60:	b108      	cbz	r0, 8000a66 <main+0x46>
 8000a62:	b672      	cpsid	i
 8000a64:	e7fe      	b.n	8000a64 <main+0x44>
 8000a66:	4d93      	ldr	r5, [pc, #588]	@ (8000cb4 <main+0x294>)
 8000a68:	f7ff fd7a 	bl	8000560 <MX_USART1_UART_Init>
 8000a6c:	f001 fb4c 	bl	8002108 <MX_FATFS_Init>
 8000a70:	4b91      	ldr	r3, [pc, #580]	@ (8000cb8 <main+0x298>)
 8000a72:	61ac      	str	r4, [r5, #24]
 8000a74:	e9c5 3400 	strd	r3, r4, [r5]
 8000a78:	227f      	movs	r2, #127	@ 0x7f
 8000a7a:	23ff      	movs	r3, #255	@ 0xff
 8000a7c:	4628      	mov	r0, r5
 8000a7e:	e9c5 4404 	strd	r4, r4, [r5, #16]
 8000a82:	e9c5 2302 	strd	r2, r3, [r5, #8]
 8000a86:	f001 f954 	bl	8001d32 <HAL_RTC_Init>
 8000a8a:	4604      	mov	r4, r0
 8000a8c:	b108      	cbz	r0, 8000a92 <main+0x72>
 8000a8e:	b672      	cpsid	i
 8000a90:	e7fe      	b.n	8000a90 <main+0x70>
 8000a92:	2113      	movs	r1, #19
 8000a94:	4628      	mov	r0, r5
 8000a96:	f001 f999 	bl	8001dcc <HAL_RTCEx_BKUPRead>
 8000a9a:	4b88      	ldr	r3, [pc, #544]	@ (8000cbc <main+0x29c>)
 8000a9c:	4298      	cmp	r0, r3
 8000a9e:	d131      	bne.n	8000b04 <main+0xe4>
 8000aa0:	4620      	mov	r0, r4
 8000aa2:	f7ff fe45 	bl	8000730 <set_magic_key>
 8000aa6:	f7ff fd25 	bl	80004f4 <MX_GPIO_Init>
 8000aaa:	f7ff fd59 	bl	8000560 <MX_USART1_UART_Init>
 8000aae:	4884      	ldr	r0, [pc, #528]	@ (8000cc0 <main+0x2a0>)
 8000ab0:	f7ff fd86 	bl	80005c0 <uart_printf>
 8000ab4:	2019      	movs	r0, #25
 8000ab6:	f000 fa99 	bl	8000fec <HAL_Delay>
 8000aba:	b672      	cpsid	i
 8000abc:	f000 faaa 	bl	8001014 <HAL_SuspendTick>
 8000ac0:	f04f 23e0 	mov.w	r3, #3758153728	@ 0xe000e000
 8000ac4:	619c      	str	r4, [r3, #24]
 8000ac6:	615c      	str	r4, [r3, #20]
 8000ac8:	611c      	str	r4, [r3, #16]
 8000aca:	4b7e      	ldr	r3, [pc, #504]	@ (8000cc4 <main+0x2a4>)
 8000acc:	60dc      	str	r4, [r3, #12]
 8000ace:	f001 f853 	bl	8001b78 <HAL_RCC_DeInit>
 8000ad2:	f000 fa1d 	bl	8000f10 <HAL_DeInit>
 8000ad6:	f04f 32ff 	mov.w	r2, #4294967295
 8000ada:	00a3      	lsls	r3, r4, #2
 8000adc:	f103 4360 	add.w	r3, r3, #3758096384	@ 0xe0000000
 8000ae0:	f503 4361 	add.w	r3, r3, #57600	@ 0xe100
 8000ae4:	3401      	adds	r4, #1
 8000ae6:	2c08      	cmp	r4, #8
 8000ae8:	f8c3 2080 	str.w	r2, [r3, #128]	@ 0x80
 8000aec:	f8c3 2180 	str.w	r2, [r3, #384]	@ 0x180
 8000af0:	d1f3      	bne.n	8000ada <main+0xba>
 8000af2:	b662      	cpsie	i
 8000af4:	4a74      	ldr	r2, [pc, #464]	@ (8000cc8 <main+0x2a8>)
 8000af6:	4b75      	ldr	r3, [pc, #468]	@ (8000ccc <main+0x2ac>)
 8000af8:	6093      	str	r3, [r2, #8]
 8000afa:	e9d3 2300 	ldrd	r2, r3, [r3]
 8000afe:	f382 8808 	msr	MSP, r2
 8000b02:	4718      	bx	r3
 8000b04:	486d      	ldr	r0, [pc, #436]	@ (8000cbc <main+0x29c>)
 8000b06:	f7ff fe13 	bl	8000730 <set_magic_key>
 8000b0a:	f44f 70fa 	mov.w	r0, #500	@ 0x1f4
 8000b0e:	f000 fa6d 	bl	8000fec <HAL_Delay>
 8000b12:	2000      	movs	r0, #0
 8000b14:	f7ff fe0c 	bl	8000730 <set_magic_key>
 8000b18:	4a6a      	ldr	r2, [pc, #424]	@ (8000cc4 <main+0x2a4>)
 8000b1a:	486d      	ldr	r0, [pc, #436]	@ (8000cd0 <main+0x2b0>)
 8000b1c:	6b13      	ldr	r3, [r2, #48]	@ 0x30
 8000b1e:	f043 031f 	orr.w	r3, r3, #31
 8000b22:	6313      	str	r3, [r2, #48]	@ 0x30
 8000b24:	f7ff fd4c 	bl	80005c0 <uart_printf>
 8000b28:	2400      	movs	r4, #0
 8000b2a:	f44f 5300 	mov.w	r3, #8192	@ 0x2000
 8000b2e:	4869      	ldr	r0, [pc, #420]	@ (8000cd4 <main+0x2b4>)
 8000b30:	9405      	str	r4, [sp, #20]
 8000b32:	2701      	movs	r7, #1
 8000b34:	a901      	add	r1, sp, #4
 8000b36:	e9cd 3701 	strd	r3, r7, [sp, #4]
 8000b3a:	2510      	movs	r5, #16
 8000b3c:	e9cd 4403 	strd	r4, r4, [sp, #12]
 8000b40:	f000 fbe4 	bl	800130c <HAL_GPIO_Init>
 8000b44:	4864      	ldr	r0, [pc, #400]	@ (8000cd8 <main+0x2b8>)
 8000b46:	a901      	add	r1, sp, #4
 8000b48:	e9cd 5401 	strd	r5, r4, [sp, #4]
 8000b4c:	e9cd 7403 	strd	r7, r4, [sp, #12]
 8000b50:	f000 fbdc 	bl	800130c <HAL_GPIO_Init>
 8000b54:	4860      	ldr	r0, [pc, #384]	@ (8000cd8 <main+0x2b8>)
 8000b56:	4629      	mov	r1, r5
 8000b58:	f000 fcb0 	bl	80014bc <HAL_GPIO_ReadPin>
 8000b5c:	b358      	cbz	r0, 8000bb6 <main+0x196>
 8000b5e:	485f      	ldr	r0, [pc, #380]	@ (8000cdc <main+0x2bc>)
 8000b60:	f7ff fd2e 	bl	80005c0 <uart_printf>
 8000b64:	2200      	movs	r2, #0
 8000b66:	4c5e      	ldr	r4, [pc, #376]	@ (8000ce0 <main+0x2c0>)
 8000b68:	495e      	ldr	r1, [pc, #376]	@ (8000ce4 <main+0x2c4>)
 8000b6a:	4610      	mov	r0, r2
 8000b6c:	f003 fb2e 	bl	80041cc <f_mount>
 8000b70:	6823      	ldr	r3, [r4, #0]
 8000b72:	3301      	adds	r3, #1
 8000b74:	d010      	beq.n	8000b98 <main+0x178>
 8000b76:	2000      	movs	r0, #0
 8000b78:	f7ff fdda 	bl	8000730 <set_magic_key>
 8000b7c:	4621      	mov	r1, r4
 8000b7e:	485a      	ldr	r0, [pc, #360]	@ (8000ce8 <main+0x2c8>)
 8000b80:	f7ff fd1e 	bl	80005c0 <uart_printf>
 8000b84:	2019      	movs	r0, #25
 8000b86:	f000 fa31 	bl	8000fec <HAL_Delay>
 8000b8a:	4b4f      	ldr	r3, [pc, #316]	@ (8000cc8 <main+0x2a8>)
 8000b8c:	609c      	str	r4, [r3, #8]
 8000b8e:	e9d4 3200 	ldrd	r3, r2, [r4]
 8000b92:	f383 8808 	msr	MSP, r3
 8000b96:	4710      	bx	r2
 8000b98:	4951      	ldr	r1, [pc, #324]	@ (8000ce0 <main+0x2c0>)
 8000b9a:	4854      	ldr	r0, [pc, #336]	@ (8000cec <main+0x2cc>)
 8000b9c:	4c4d      	ldr	r4, [pc, #308]	@ (8000cd4 <main+0x2b4>)
 8000b9e:	f7ff fd0f 	bl	80005c0 <uart_printf>
 8000ba2:	4620      	mov	r0, r4
 8000ba4:	f44f 5100 	mov.w	r1, #8192	@ 0x2000
 8000ba8:	f000 fc93 	bl	80014d2 <HAL_GPIO_TogglePin>
 8000bac:	f240 50dc 	movw	r0, #1500	@ 0x5dc
 8000bb0:	f000 fa1c 	bl	8000fec <HAL_Delay>
 8000bb4:	e7f5      	b.n	8000ba2 <main+0x182>
 8000bb6:	484e      	ldr	r0, [pc, #312]	@ (8000cf0 <main+0x2d0>)
 8000bb8:	4d4e      	ldr	r5, [pc, #312]	@ (8000cf4 <main+0x2d4>)
 8000bba:	f7ff fd01 	bl	80005c0 <uart_printf>
 8000bbe:	f44f 70af 	mov.w	r0, #350	@ 0x15e
 8000bc2:	f000 fa13 	bl	8000fec <HAL_Delay>
 8000bc6:	4947      	ldr	r1, [pc, #284]	@ (8000ce4 <main+0x2c4>)
 8000bc8:	484b      	ldr	r0, [pc, #300]	@ (8000cf8 <main+0x2d8>)
 8000bca:	463a      	mov	r2, r7
 8000bcc:	f003 fafe 	bl	80041cc <f_mount>
 8000bd0:	4601      	mov	r1, r0
 8000bd2:	7028      	strb	r0, [r5, #0]
 8000bd4:	b118      	cbz	r0, 8000bde <main+0x1be>
 8000bd6:	4849      	ldr	r0, [pc, #292]	@ (8000cfc <main+0x2dc>)
 8000bd8:	f7ff fcf2 	bl	80005c0 <uart_printf>
 8000bdc:	e7c2      	b.n	8000b64 <main+0x144>
 8000bde:	4e48      	ldr	r6, [pc, #288]	@ (8000d00 <main+0x2e0>)
 8000be0:	4848      	ldr	r0, [pc, #288]	@ (8000d04 <main+0x2e4>)
 8000be2:	f7ff fced 	bl	80005c0 <uart_printf>
 8000be6:	4947      	ldr	r1, [pc, #284]	@ (8000d04 <main+0x2e4>)
 8000be8:	463a      	mov	r2, r7
 8000bea:	4630      	mov	r0, r6
 8000bec:	f003 fb18 	bl	8004220 <f_open>
 8000bf0:	b108      	cbz	r0, 8000bf6 <main+0x1d6>
 8000bf2:	4845      	ldr	r0, [pc, #276]	@ (8000d08 <main+0x2e8>)
 8000bf4:	e7b4      	b.n	8000b60 <main+0x140>
 8000bf6:	4845      	ldr	r0, [pc, #276]	@ (8000d0c <main+0x2ec>)
 8000bf8:	4f45      	ldr	r7, [pc, #276]	@ (8000d10 <main+0x2f0>)
 8000bfa:	f7ff fce1 	bl	80005c0 <uart_printf>
 8000bfe:	6933      	ldr	r3, [r6, #16]
 8000c00:	603b      	str	r3, [r7, #0]
 8000c02:	b93b      	cbnz	r3, 8000c14 <main+0x1f4>
 8000c04:	493f      	ldr	r1, [pc, #252]	@ (8000d04 <main+0x2e4>)
 8000c06:	4843      	ldr	r0, [pc, #268]	@ (8000d14 <main+0x2f4>)
 8000c08:	f7ff fcda 	bl	80005c0 <uart_printf>
 8000c0c:	4630      	mov	r0, r6
 8000c0e:	f003 fe20 	bl	8004852 <f_close>
 8000c12:	e7a7      	b.n	8000b64 <main+0x144>
 8000c14:	4b40      	ldr	r3, [pc, #256]	@ (8000d18 <main+0x2f8>)
 8000c16:	4841      	ldr	r0, [pc, #260]	@ (8000d1c <main+0x2fc>)
 8000c18:	f8d3 3a22 	ldr.w	r3, [r3, #2594]	@ 0xa22
 8000c1c:	b29b      	uxth	r3, r3
 8000c1e:	f8ad 3002 	strh.w	r3, [sp, #2]
 8000c22:	f8bd 1002 	ldrh.w	r1, [sp, #2]
 8000c26:	b289      	uxth	r1, r1
 8000c28:	f7ff fcca 	bl	80005c0 <uart_printf>
 8000c2c:	f8bd 4002 	ldrh.w	r4, [sp, #2]
 8000c30:	483b      	ldr	r0, [pc, #236]	@ (8000d20 <main+0x300>)
 8000c32:	b2a4      	uxth	r4, r4
 8000c34:	02a4      	lsls	r4, r4, #10
 8000c36:	f5a4 3480 	sub.w	r4, r4, #65536	@ 0x10000
 8000c3a:	0aa1      	lsrs	r1, r4, #10
 8000c3c:	f7ff fcc0 	bl	80005c0 <uart_printf>
 8000c40:	6839      	ldr	r1, [r7, #0]
 8000c42:	4838      	ldr	r0, [pc, #224]	@ (8000d24 <main+0x304>)
 8000c44:	0a89      	lsrs	r1, r1, #10
 8000c46:	f7ff fcbb 	bl	80005c0 <uart_printf>
 8000c4a:	683b      	ldr	r3, [r7, #0]
 8000c4c:	42a3      	cmp	r3, r4
 8000c4e:	d903      	bls.n	8000c58 <main+0x238>
 8000c50:	4835      	ldr	r0, [pc, #212]	@ (8000d28 <main+0x308>)
 8000c52:	f7ff fcb5 	bl	80005c0 <uart_printf>
 8000c56:	e7d9      	b.n	8000c0c <main+0x1ec>
 8000c58:	4834      	ldr	r0, [pc, #208]	@ (8000d2c <main+0x30c>)
 8000c5a:	f7ff fcb1 	bl	80005c0 <uart_printf>
 8000c5e:	f7ff fd77 	bl	8000750 <compareFlashToFile>
 8000c62:	b2c0      	uxtb	r0, r0
 8000c64:	2801      	cmp	r0, #1
 8000c66:	7028      	strb	r0, [r5, #0]
 8000c68:	f63f af7c 	bhi.w	8000b64 <main+0x144>
 8000c6c:	d102      	bne.n	8000c74 <main+0x254>
 8000c6e:	f7ff fde5 	bl	800083c <CopyFileToFlashMemory>
 8000c72:	7028      	strb	r0, [r5, #0]
 8000c74:	4822      	ldr	r0, [pc, #136]	@ (8000d00 <main+0x2e0>)
 8000c76:	f003 fdec 	bl	8004852 <f_close>
 8000c7a:	782b      	ldrb	r3, [r5, #0]
 8000c7c:	2b00      	cmp	r3, #0
 8000c7e:	f47f af71 	bne.w	8000b64 <main+0x144>
 8000c82:	482b      	ldr	r0, [pc, #172]	@ (8000d30 <main+0x310>)
 8000c84:	f003 ff73 	bl	8004b6e <f_unlink>
 8000c88:	4929      	ldr	r1, [pc, #164]	@ (8000d30 <main+0x310>)
 8000c8a:	481e      	ldr	r0, [pc, #120]	@ (8000d04 <main+0x2e4>)
 8000c8c:	f003 ffdf 	bl	8004c4e <f_rename>
 8000c90:	b138      	cbz	r0, 8000ca2 <main+0x282>
 8000c92:	4828      	ldr	r0, [pc, #160]	@ (8000d34 <main+0x314>)
 8000c94:	f7ff fc94 	bl	80005c0 <uart_printf>
 8000c98:	2301      	movs	r3, #1
 8000c9a:	702b      	strb	r3, [r5, #0]
 8000c9c:	4924      	ldr	r1, [pc, #144]	@ (8000d30 <main+0x310>)
 8000c9e:	4826      	ldr	r0, [pc, #152]	@ (8000d38 <main+0x318>)
 8000ca0:	e79a      	b.n	8000bd8 <main+0x1b8>
 8000ca2:	4826      	ldr	r0, [pc, #152]	@ (8000d3c <main+0x31c>)
 8000ca4:	f7ff fc8c 	bl	80005c0 <uart_printf>
 8000ca8:	e7f8      	b.n	8000c9c <main+0x27c>
 8000caa:	bf00      	nop
 8000cac:	20001528 	.word	0x20001528
 8000cb0:	40003c00 	.word	0x40003c00
 8000cb4:	20001580 	.word	0x20001580
 8000cb8:	40002800 	.word	0x40002800
 8000cbc:	ba5eba11 	.word	0xba5eba11
 8000cc0:	08005070 	.word	0x08005070
 8000cc4:	40023800 	.word	0x40023800
 8000cc8:	e000ed00 	.word	0xe000ed00
 8000ccc:	1fff0000 	.word	0x1fff0000
 8000cd0:	08005086 	.word	0x08005086
 8000cd4:	40020000 	.word	0x40020000
 8000cd8:	40020800 	.word	0x40020800
 8000cdc:	080050a5 	.word	0x080050a5
 8000ce0:	08010000 	.word	0x08010000
 8000ce4:	080052c6 	.word	0x080052c6
 8000ce8:	08005276 	.word	0x08005276
 8000cec:	0800529b 	.word	0x0800529b
 8000cf0:	080050bd 	.word	0x080050bd
 8000cf4:	20001048 	.word	0x20001048
 8000cf8:	200012a8 	.word	0x200012a8
 8000cfc:	080050ec 	.word	0x080050ec
 8000d00:	20001050 	.word	0x20001050
 8000d04:	0800512e 	.word	0x0800512e
 8000d08:	0800513b 	.word	0x0800513b
 8000d0c:	08005148 	.word	0x08005148
 8000d10:	20001044 	.word	0x20001044
 8000d14:	0800515f 	.word	0x0800515f
 8000d18:	1fff7000 	.word	0x1fff7000
 8000d1c:	08005180 	.word	0x08005180
 8000d20:	080051a0 	.word	0x080051a0
 8000d24:	080051b9 	.word	0x080051b9
 8000d28:	080051d4 	.word	0x080051d4
 8000d2c:	08005205 	.word	0x08005205
 8000d30:	08005228 	.word	0x08005228
 8000d34:	08005235 	.word	0x08005235
 8000d38:	08005271 	.word	0x08005271
 8000d3c:	0800525f 	.word	0x0800525f

08000d40 <Error_Handler>:
 8000d40:	b672      	cpsid	i
 8000d42:	e7fe      	b.n	8000d42 <Error_Handler+0x2>

08000d44 <HAL_MspInit>:
 8000d44:	b082      	sub	sp, #8
 8000d46:	4b0c      	ldr	r3, [pc, #48]	@ (8000d78 <HAL_MspInit+0x34>)
 8000d48:	2100      	movs	r1, #0
 8000d4a:	9100      	str	r1, [sp, #0]
 8000d4c:	6c5a      	ldr	r2, [r3, #68]	@ 0x44
 8000d4e:	f442 4280 	orr.w	r2, r2, #16384	@ 0x4000
 8000d52:	645a      	str	r2, [r3, #68]	@ 0x44
 8000d54:	6c5a      	ldr	r2, [r3, #68]	@ 0x44
 8000d56:	f402 4280 	and.w	r2, r2, #16384	@ 0x4000
 8000d5a:	9200      	str	r2, [sp, #0]
 8000d5c:	9a00      	ldr	r2, [sp, #0]
 8000d5e:	9101      	str	r1, [sp, #4]
 8000d60:	6c1a      	ldr	r2, [r3, #64]	@ 0x40
 8000d62:	f042 5280 	orr.w	r2, r2, #268435456	@ 0x10000000
 8000d66:	641a      	str	r2, [r3, #64]	@ 0x40
 8000d68:	6c1b      	ldr	r3, [r3, #64]	@ 0x40
 8000d6a:	f003 5380 	and.w	r3, r3, #268435456	@ 0x10000000
 8000d6e:	9301      	str	r3, [sp, #4]
 8000d70:	9b01      	ldr	r3, [sp, #4]
 8000d72:	b002      	add	sp, #8
 8000d74:	4770      	bx	lr
 8000d76:	bf00      	nop
 8000d78:	40023800 	.word	0x40023800

08000d7c <HAL_RTC_MspInit>:
 8000d7c:	b51f      	push	{r0, r1, r2, r3, r4, lr}
 8000d7e:	4604      	mov	r4, r0
 8000d80:	2210      	movs	r2, #16
 8000d82:	2100      	movs	r1, #0
 8000d84:	4668      	mov	r0, sp
 8000d86:	f004 f8a5 	bl	8004ed4 <memset>
 8000d8a:	6822      	ldr	r2, [r4, #0]
 8000d8c:	4b09      	ldr	r3, [pc, #36]	@ (8000db4 <HAL_RTC_MspInit+0x38>)
 8000d8e:	429a      	cmp	r2, r3
 8000d90:	d10e      	bne.n	8000db0 <HAL_RTC_MspInit+0x34>
 8000d92:	2302      	movs	r3, #2
 8000d94:	9300      	str	r3, [sp, #0]
 8000d96:	4668      	mov	r0, sp
 8000d98:	f44f 7300 	mov.w	r3, #512	@ 0x200
 8000d9c:	9303      	str	r3, [sp, #12]
 8000d9e:	f000 fe53 	bl	8001a48 <HAL_RCCEx_PeriphCLKConfig>
 8000da2:	b108      	cbz	r0, 8000da8 <HAL_RTC_MspInit+0x2c>
 8000da4:	f7ff ffcc 	bl	8000d40 <Error_Handler>
 8000da8:	4b03      	ldr	r3, [pc, #12]	@ (8000db8 <HAL_RTC_MspInit+0x3c>)
 8000daa:	2201      	movs	r2, #1
 8000dac:	f8c3 2e3c 	str.w	r2, [r3, #3644]	@ 0xe3c
 8000db0:	b004      	add	sp, #16
 8000db2:	bd10      	pop	{r4, pc}
 8000db4:	40002800 	.word	0x40002800
 8000db8:	42470000 	.word	0x42470000

08000dbc <HAL_SPI_MspInit>:
 8000dbc:	b510      	push	{r4, lr}
 8000dbe:	4604      	mov	r4, r0
 8000dc0:	b088      	sub	sp, #32
 8000dc2:	2214      	movs	r2, #20
 8000dc4:	2100      	movs	r1, #0
 8000dc6:	a803      	add	r0, sp, #12
 8000dc8:	f004 f884 	bl	8004ed4 <memset>
 8000dcc:	6822      	ldr	r2, [r4, #0]
 8000dce:	4b14      	ldr	r3, [pc, #80]	@ (8000e20 <HAL_SPI_MspInit+0x64>)
 8000dd0:	429a      	cmp	r2, r3
 8000dd2:	d123      	bne.n	8000e1c <HAL_SPI_MspInit+0x60>
 8000dd4:	f503 33fe 	add.w	r3, r3, #130048	@ 0x1fc00
 8000dd8:	2100      	movs	r1, #0
 8000dda:	9101      	str	r1, [sp, #4]
 8000ddc:	6c1a      	ldr	r2, [r3, #64]	@ 0x40
 8000dde:	4811      	ldr	r0, [pc, #68]	@ (8000e24 <HAL_SPI_MspInit+0x68>)
 8000de0:	f442 4200 	orr.w	r2, r2, #32768	@ 0x8000
 8000de4:	641a      	str	r2, [r3, #64]	@ 0x40
 8000de6:	6c1a      	ldr	r2, [r3, #64]	@ 0x40
 8000de8:	f402 4200 	and.w	r2, r2, #32768	@ 0x8000
 8000dec:	9201      	str	r2, [sp, #4]
 8000dee:	9a01      	ldr	r2, [sp, #4]
 8000df0:	9102      	str	r1, [sp, #8]
 8000df2:	6b1a      	ldr	r2, [r3, #48]	@ 0x30
 8000df4:	f042 0204 	orr.w	r2, r2, #4
 8000df8:	631a      	str	r2, [r3, #48]	@ 0x30
 8000dfa:	6b1b      	ldr	r3, [r3, #48]	@ 0x30
 8000dfc:	f003 0304 	and.w	r3, r3, #4
 8000e00:	9302      	str	r3, [sp, #8]
 8000e02:	9b02      	ldr	r3, [sp, #8]
 8000e04:	f44f 52e0 	mov.w	r2, #7168	@ 0x1c00
 8000e08:	2302      	movs	r3, #2
 8000e0a:	e9cd 2303 	strd	r2, r3, [sp, #12]
 8000e0e:	2301      	movs	r3, #1
 8000e10:	9305      	str	r3, [sp, #20]
 8000e12:	a903      	add	r1, sp, #12
 8000e14:	2306      	movs	r3, #6
 8000e16:	9307      	str	r3, [sp, #28]
 8000e18:	f000 fa78 	bl	800130c <HAL_GPIO_Init>
 8000e1c:	b008      	add	sp, #32
 8000e1e:	bd10      	pop	{r4, pc}
 8000e20:	40003c00 	.word	0x40003c00
 8000e24:	40020800 	.word	0x40020800

08000e28 <HAL_UART_MspInit>:
 8000e28:	b510      	push	{r4, lr}
 8000e2a:	4604      	mov	r4, r0
 8000e2c:	b088      	sub	sp, #32
 8000e2e:	2214      	movs	r2, #20
 8000e30:	2100      	movs	r1, #0
 8000e32:	a803      	add	r0, sp, #12
 8000e34:	f004 f84e 	bl	8004ed4 <memset>
 8000e38:	6822      	ldr	r2, [r4, #0]
 8000e3a:	4b14      	ldr	r3, [pc, #80]	@ (8000e8c <HAL_UART_MspInit+0x64>)
 8000e3c:	429a      	cmp	r2, r3
 8000e3e:	d123      	bne.n	8000e88 <HAL_UART_MspInit+0x60>
 8000e40:	f503 3394 	add.w	r3, r3, #75776	@ 0x12800
 8000e44:	2100      	movs	r1, #0
 8000e46:	9101      	str	r1, [sp, #4]
 8000e48:	6c5a      	ldr	r2, [r3, #68]	@ 0x44
 8000e4a:	4811      	ldr	r0, [pc, #68]	@ (8000e90 <HAL_UART_MspInit+0x68>)
 8000e4c:	f042 0210 	orr.w	r2, r2, #16
 8000e50:	645a      	str	r2, [r3, #68]	@ 0x44
 8000e52:	6c5a      	ldr	r2, [r3, #68]	@ 0x44
 8000e54:	f002 0210 	and.w	r2, r2, #16
 8000e58:	9201      	str	r2, [sp, #4]
 8000e5a:	9a01      	ldr	r2, [sp, #4]
 8000e5c:	9102      	str	r1, [sp, #8]
 8000e5e:	6b1a      	ldr	r2, [r3, #48]	@ 0x30
 8000e60:	f042 0201 	orr.w	r2, r2, #1
 8000e64:	631a      	str	r2, [r3, #48]	@ 0x30
 8000e66:	6b1b      	ldr	r3, [r3, #48]	@ 0x30
 8000e68:	f003 0301 	and.w	r3, r3, #1
 8000e6c:	9302      	str	r3, [sp, #8]
 8000e6e:	9b02      	ldr	r3, [sp, #8]
 8000e70:	f44f 62c0 	mov.w	r2, #1536	@ 0x600
 8000e74:	2302      	movs	r3, #2
 8000e76:	2103      	movs	r1, #3
 8000e78:	e9cd 2303 	strd	r2, r3, [sp, #12]
 8000e7c:	2307      	movs	r3, #7
 8000e7e:	e9cd 1306 	strd	r1, r3, [sp, #24]
 8000e82:	a903      	add	r1, sp, #12
 8000e84:	f000 fa42 	bl	800130c <HAL_GPIO_Init>
 8000e88:	b008      	add	sp, #32
 8000e8a:	bd10      	pop	{r4, pc}
 8000e8c:	40011000 	.word	0x40011000
 8000e90:	40020000 	.word	0x40020000

08000e94 <NMI_Handler>:
 8000e94:	e7fe      	b.n	8000e94 <NMI_Handler>

08000e96 <HardFault_Handler>:
 8000e96:	e7fe      	b.n	8000e96 <HardFault_Handler>

08000e98 <MemManage_Handler>:
 8000e98:	e7fe      	b.n	8000e98 <MemManage_Handler>

08000e9a <BusFault_Handler>:
 8000e9a:	e7fe      	b.n	8000e9a <BusFault_Handler>

08000e9c <UsageFault_Handler>:
 8000e9c:	e7fe      	b.n	8000e9c <UsageFault_Handler>

08000e9e <SVC_Handler>:
 8000e9e:	4770      	bx	lr

08000ea0 <DebugMon_Handler>:
 8000ea0:	4770      	bx	lr

08000ea2 <PendSV_Handler>:
 8000ea2:	4770      	bx	lr

08000ea4 <SysTick_Handler>:
 8000ea4:	f000 b890 	b.w	8000fc8 <HAL_IncTick>

08000ea8 <SystemInit>:
 8000ea8:	4a03      	ldr	r2, [pc, #12]	@ (8000eb8 <SystemInit+0x10>)
 8000eaa:	f8d2 3088 	ldr.w	r3, [r2, #136]	@ 0x88
 8000eae:	f443 0370 	orr.w	r3, r3, #15728640	@ 0xf00000
 8000eb2:	f8c2 3088 	str.w	r3, [r2, #136]	@ 0x88
 8000eb6:	4770      	bx	lr
 8000eb8:	e000ed00 	.word	0xe000ed00

08000ebc <Reset_Handler>:
 8000ebc:	f8df d034 	ldr.w	sp, [pc, #52]	@ 8000ef4 <LoopFillZerobss+0xe>
 8000ec0:	f7ff fff2 	bl	8000ea8 <SystemInit>
 8000ec4:	480c      	ldr	r0, [pc, #48]	@ (8000ef8 <LoopFillZerobss+0x12>)
 8000ec6:	490d      	ldr	r1, [pc, #52]	@ (8000efc <LoopFillZerobss+0x16>)
 8000ec8:	4a0d      	ldr	r2, [pc, #52]	@ (8000f00 <LoopFillZerobss+0x1a>)
 8000eca:	2300      	movs	r3, #0
 8000ecc:	e002      	b.n	8000ed4 <LoopCopyDataInit>

08000ece <CopyDataInit>:
 8000ece:	58d4      	ldr	r4, [r2, r3]
 8000ed0:	50c4      	str	r4, [r0, r3]
 8000ed2:	3304      	adds	r3, #4

08000ed4 <LoopCopyDataInit>:
 8000ed4:	18c4      	adds	r4, r0, r3
 8000ed6:	428c      	cmp	r4, r1
 8000ed8:	d3f9      	bcc.n	8000ece <CopyDataInit>
 8000eda:	4a0a      	ldr	r2, [pc, #40]	@ (8000f04 <LoopFillZerobss+0x1e>)
 8000edc:	4c0a      	ldr	r4, [pc, #40]	@ (8000f08 <LoopFillZerobss+0x22>)
 8000ede:	2300      	movs	r3, #0
 8000ee0:	e001      	b.n	8000ee6 <LoopFillZerobss>

08000ee2 <FillZerobss>:
 8000ee2:	6013      	str	r3, [r2, #0]
 8000ee4:	3204      	adds	r2, #4

08000ee6 <LoopFillZerobss>:
 8000ee6:	42a2      	cmp	r2, r4
 8000ee8:	d3fb      	bcc.n	8000ee2 <FillZerobss>
 8000eea:	f003 fffb 	bl	8004ee4 <__libc_init_array>
 8000eee:	f7ff fd97 	bl	8000a20 <main>
 8000ef2:	4770      	bx	lr
 8000ef4:	20020000 	.word	0x20020000
 8000ef8:	20000000 	.word	0x20000000
 8000efc:	20000024 	.word	0x20000024
 8000f00:	08005748 	.word	0x08005748
 8000f04:	20000028 	.word	0x20000028
 8000f08:	20001a60 	.word	0x20001a60

08000f0c <ADC_IRQHandler>:
 8000f0c:	e7fe      	b.n	8000f0c <ADC_IRQHandler>

08000f0e <HAL_MspDeInit>:
 8000f0e:	4770      	bx	lr

08000f10 <HAL_DeInit>:
 8000f10:	4b0a      	ldr	r3, [pc, #40]	@ (8000f3c <HAL_DeInit+0x2c>)
 8000f12:	4a0b      	ldr	r2, [pc, #44]	@ (8000f40 <HAL_DeInit+0x30>)
 8000f14:	b510      	push	{r4, lr}
 8000f16:	621a      	str	r2, [r3, #32]
 8000f18:	2400      	movs	r4, #0
 8000f1a:	4a0a      	ldr	r2, [pc, #40]	@ (8000f44 <HAL_DeInit+0x34>)
 8000f1c:	621c      	str	r4, [r3, #32]
 8000f1e:	625a      	str	r2, [r3, #36]	@ 0x24
 8000f20:	4a09      	ldr	r2, [pc, #36]	@ (8000f48 <HAL_DeInit+0x38>)
 8000f22:	625c      	str	r4, [r3, #36]	@ 0x24
 8000f24:	611a      	str	r2, [r3, #16]
 8000f26:	22c1      	movs	r2, #193	@ 0xc1
 8000f28:	611c      	str	r4, [r3, #16]
 8000f2a:	615a      	str	r2, [r3, #20]
 8000f2c:	2201      	movs	r2, #1
 8000f2e:	615c      	str	r4, [r3, #20]
 8000f30:	619a      	str	r2, [r3, #24]
 8000f32:	619c      	str	r4, [r3, #24]
 8000f34:	f7ff ffeb 	bl	8000f0e <HAL_MspDeInit>
 8000f38:	4620      	mov	r0, r4
 8000f3a:	bd10      	pop	{r4, pc}
 8000f3c:	40023800 	.word	0x40023800
 8000f40:	f6fec9ff 	.word	0xf6fec9ff
 8000f44:	04777933 	.word	0x04777933
 8000f48:	226011ff 	.word	0x226011ff

08000f4c <HAL_InitTick>:
 8000f4c:	b538      	push	{r3, r4, r5, lr}
 8000f4e:	4b0e      	ldr	r3, [pc, #56]	@ (8000f88 <HAL_InitTick+0x3c>)
 8000f50:	781a      	ldrb	r2, [r3, #0]
 8000f52:	f44f 737a 	mov.w	r3, #1000	@ 0x3e8
 8000f56:	fbb3 f3f2 	udiv	r3, r3, r2
 8000f5a:	4a0c      	ldr	r2, [pc, #48]	@ (8000f8c <HAL_InitTick+0x40>)
 8000f5c:	4605      	mov	r5, r0
 8000f5e:	6810      	ldr	r0, [r2, #0]
 8000f60:	fbb0 f0f3 	udiv	r0, r0, r3
 8000f64:	f000 f8a2 	bl	80010ac <HAL_SYSTICK_Config>
 8000f68:	4604      	mov	r4, r0
 8000f6a:	b958      	cbnz	r0, 8000f84 <HAL_InitTick+0x38>
 8000f6c:	2d0f      	cmp	r5, #15
 8000f6e:	d809      	bhi.n	8000f84 <HAL_InitTick+0x38>
 8000f70:	4602      	mov	r2, r0
 8000f72:	4629      	mov	r1, r5
 8000f74:	f04f 30ff 	mov.w	r0, #4294967295
 8000f78:	f000 f866 	bl	8001048 <HAL_NVIC_SetPriority>
 8000f7c:	4b04      	ldr	r3, [pc, #16]	@ (8000f90 <HAL_InitTick+0x44>)
 8000f7e:	4620      	mov	r0, r4
 8000f80:	601d      	str	r5, [r3, #0]
 8000f82:	bd38      	pop	{r3, r4, r5, pc}
 8000f84:	2001      	movs	r0, #1
 8000f86:	e7fc      	b.n	8000f82 <HAL_InitTick+0x36>
 8000f88:	20000004 	.word	0x20000004
 8000f8c:	20000000 	.word	0x20000000
 8000f90:	20000008 	.word	0x20000008

08000f94 <HAL_Init>:
 8000f94:	b508      	push	{r3, lr}
 8000f96:	4b0b      	ldr	r3, [pc, #44]	@ (8000fc4 <HAL_Init+0x30>)
 8000f98:	681a      	ldr	r2, [r3, #0]
 8000f9a:	f442 7200 	orr.w	r2, r2, #512	@ 0x200
 8000f9e:	601a      	str	r2, [r3, #0]
 8000fa0:	681a      	ldr	r2, [r3, #0]
 8000fa2:	f442 6280 	orr.w	r2, r2, #1024	@ 0x400
 8000fa6:	601a      	str	r2, [r3, #0]
 8000fa8:	681a      	ldr	r2, [r3, #0]
 8000faa:	f442 7280 	orr.w	r2, r2, #256	@ 0x100
 8000fae:	601a      	str	r2, [r3, #0]
 8000fb0:	2003      	movs	r0, #3
 8000fb2:	f000 f837 	bl	8001024 <HAL_NVIC_SetPriorityGrouping>
 8000fb6:	200f      	movs	r0, #15
 8000fb8:	f7ff ffc8 	bl	8000f4c <HAL_InitTick>
 8000fbc:	f7ff fec2 	bl	8000d44 <HAL_MspInit>
 8000fc0:	2000      	movs	r0, #0
 8000fc2:	bd08      	pop	{r3, pc}
 8000fc4:	40023c00 	.word	0x40023c00

08000fc8 <HAL_IncTick>:
 8000fc8:	4a03      	ldr	r2, [pc, #12]	@ (8000fd8 <HAL_IncTick+0x10>)
 8000fca:	4b04      	ldr	r3, [pc, #16]	@ (8000fdc <HAL_IncTick+0x14>)
 8000fcc:	6811      	ldr	r1, [r2, #0]
 8000fce:	781b      	ldrb	r3, [r3, #0]
 8000fd0:	440b      	add	r3, r1
 8000fd2:	6013      	str	r3, [r2, #0]
 8000fd4:	4770      	bx	lr
 8000fd6:	bf00      	nop
 8000fd8:	200015a0 	.word	0x200015a0
 8000fdc:	20000004 	.word	0x20000004

08000fe0 <HAL_GetTick>:
 8000fe0:	4b01      	ldr	r3, [pc, #4]	@ (8000fe8 <HAL_GetTick+0x8>)
 8000fe2:	6818      	ldr	r0, [r3, #0]
 8000fe4:	4770      	bx	lr
 8000fe6:	bf00      	nop
 8000fe8:	200015a0 	.word	0x200015a0

08000fec <HAL_Delay>:
 8000fec:	b538      	push	{r3, r4, r5, lr}
 8000fee:	4604      	mov	r4, r0
 8000ff0:	f7ff fff6 	bl	8000fe0 <HAL_GetTick>
 8000ff4:	1c63      	adds	r3, r4, #1
 8000ff6:	bf1c      	itt	ne
 8000ff8:	4b05      	ldrne	r3, [pc, #20]	@ (8001010 <HAL_Delay+0x24>)
 8000ffa:	781b      	ldrbne	r3, [r3, #0]
 8000ffc:	4605      	mov	r5, r0
 8000ffe:	bf18      	it	ne
 8001000:	18e4      	addne	r4, r4, r3
 8001002:	f7ff ffed 	bl	8000fe0 <HAL_GetTick>
 8001006:	1b43      	subs	r3, r0, r5
 8001008:	42a3      	cmp	r3, r4
 800100a:	d3fa      	bcc.n	8001002 <HAL_Delay+0x16>
 800100c:	bd38      	pop	{r3, r4, r5, pc}
 800100e:	bf00      	nop
 8001010:	20000004 	.word	0x20000004

08001014 <HAL_SuspendTick>:
 8001014:	f04f 22e0 	mov.w	r2, #3758153728	@ 0xe000e000
 8001018:	6913      	ldr	r3, [r2, #16]
 800101a:	f023 0302 	bic.w	r3, r3, #2
 800101e:	6113      	str	r3, [r2, #16]
 8001020:	4770      	bx	lr
	...

08001024 <HAL_NVIC_SetPriorityGrouping>:
 8001024:	4907      	ldr	r1, [pc, #28]	@ (8001044 <HAL_NVIC_SetPriorityGrouping+0x20>)
 8001026:	68ca      	ldr	r2, [r1, #12]
 8001028:	f422 62e0 	bic.w	r2, r2, #1792	@ 0x700
 800102c:	0203      	lsls	r3, r0, #8
 800102e:	0412      	lsls	r2, r2, #16
 8001030:	f403 63e0 	and.w	r3, r3, #1792	@ 0x700
 8001034:	0c12      	lsrs	r2, r2, #16
 8001036:	4313      	orrs	r3, r2
 8001038:	f043 63bf 	orr.w	r3, r3, #100139008	@ 0x5f80000
 800103c:	f443 3300 	orr.w	r3, r3, #131072	@ 0x20000
 8001040:	60cb      	str	r3, [r1, #12]
 8001042:	4770      	bx	lr
 8001044:	e000ed00 	.word	0xe000ed00

08001048 <HAL_NVIC_SetPriority>:
 8001048:	4b16      	ldr	r3, [pc, #88]	@ (80010a4 <HAL_NVIC_SetPriority+0x5c>)
 800104a:	b530      	push	{r4, r5, lr}
 800104c:	68dc      	ldr	r4, [r3, #12]
 800104e:	f3c4 2402 	ubfx	r4, r4, #8, #3
 8001052:	f1c4 0307 	rsb	r3, r4, #7
 8001056:	1d25      	adds	r5, r4, #4
 8001058:	2b04      	cmp	r3, #4
 800105a:	bf28      	it	cs
 800105c:	2304      	movcs	r3, #4
 800105e:	2d06      	cmp	r5, #6
 8001060:	f04f 35ff 	mov.w	r5, #4294967295
 8001064:	bf8c      	ite	hi
 8001066:	3c03      	subhi	r4, #3
 8001068:	2400      	movls	r4, #0
 800106a:	fa05 f303 	lsl.w	r3, r5, r3
 800106e:	ea21 0303 	bic.w	r3, r1, r3
 8001072:	40a5      	lsls	r5, r4
 8001074:	ea22 0205 	bic.w	r2, r2, r5
 8001078:	40a3      	lsls	r3, r4
 800107a:	2800      	cmp	r0, #0
 800107c:	ea43 0302 	orr.w	r3, r3, r2
 8001080:	bfac      	ite	ge
 8001082:	f100 4060 	addge.w	r0, r0, #3758096384	@ 0xe0000000
 8001086:	4a08      	ldrlt	r2, [pc, #32]	@ (80010a8 <HAL_NVIC_SetPriority+0x60>)
 8001088:	ea4f 1303 	mov.w	r3, r3, lsl #4
 800108c:	bfb8      	it	lt
 800108e:	f000 000f 	andlt.w	r0, r0, #15
 8001092:	b2db      	uxtb	r3, r3
 8001094:	bfaa      	itet	ge
 8001096:	f500 4061 	addge.w	r0, r0, #57600	@ 0xe100
 800109a:	5413      	strblt	r3, [r2, r0]
 800109c:	f880 3300 	strbge.w	r3, [r0, #768]	@ 0x300
 80010a0:	bd30      	pop	{r4, r5, pc}
 80010a2:	bf00      	nop
 80010a4:	e000ed00 	.word	0xe000ed00
 80010a8:	e000ed14 	.word	0xe000ed14

080010ac <HAL_SYSTICK_Config>:
 80010ac:	3801      	subs	r0, #1
 80010ae:	f1b0 7f80 	cmp.w	r0, #16777216	@ 0x1000000
 80010b2:	d20b      	bcs.n	80010cc <HAL_SYSTICK_Config+0x20>
 80010b4:	f04f 23e0 	mov.w	r3, #3758153728	@ 0xe000e000
 80010b8:	4a05      	ldr	r2, [pc, #20]	@ (80010d0 <HAL_SYSTICK_Config+0x24>)
 80010ba:	6158      	str	r0, [r3, #20]
 80010bc:	21f0      	movs	r1, #240	@ 0xf0
 80010be:	f882 1023 	strb.w	r1, [r2, #35]	@ 0x23
 80010c2:	2000      	movs	r0, #0
 80010c4:	2207      	movs	r2, #7
 80010c6:	6198      	str	r0, [r3, #24]
 80010c8:	611a      	str	r2, [r3, #16]
 80010ca:	4770      	bx	lr
 80010cc:	2001      	movs	r0, #1
 80010ce:	4770      	bx	lr
 80010d0:	e000ed00 	.word	0xe000ed00

080010d4 <FLASH_Program_DoubleWord>:
 80010d4:	4909      	ldr	r1, [pc, #36]	@ (80010fc <FLASH_Program_DoubleWord+0x28>)
 80010d6:	b510      	push	{r4, lr}
 80010d8:	690c      	ldr	r4, [r1, #16]
 80010da:	f424 7440 	bic.w	r4, r4, #768	@ 0x300
 80010de:	610c      	str	r4, [r1, #16]
 80010e0:	690c      	ldr	r4, [r1, #16]
 80010e2:	f444 7440 	orr.w	r4, r4, #768	@ 0x300
 80010e6:	610c      	str	r4, [r1, #16]
 80010e8:	690c      	ldr	r4, [r1, #16]
 80010ea:	f044 0401 	orr.w	r4, r4, #1
 80010ee:	610c      	str	r4, [r1, #16]
 80010f0:	6002      	str	r2, [r0, #0]
 80010f2:	f3bf 8f6f 	isb	sy
 80010f6:	6043      	str	r3, [r0, #4]
 80010f8:	bd10      	pop	{r4, pc}
 80010fa:	bf00      	nop
 80010fc:	40023c00 	.word	0x40023c00

08001100 <FLASH_Program_Word>:
 8001100:	4b07      	ldr	r3, [pc, #28]	@ (8001120 <FLASH_Program_Word+0x20>)
 8001102:	691a      	ldr	r2, [r3, #16]
 8001104:	f422 7240 	bic.w	r2, r2, #768	@ 0x300
 8001108:	611a      	str	r2, [r3, #16]
 800110a:	691a      	ldr	r2, [r3, #16]
 800110c:	f442 7200 	orr.w	r2, r2, #512	@ 0x200
 8001110:	611a      	str	r2, [r3, #16]
 8001112:	691a      	ldr	r2, [r3, #16]
 8001114:	f042 0201 	orr.w	r2, r2, #1
 8001118:	611a      	str	r2, [r3, #16]
 800111a:	6001      	str	r1, [r0, #0]
 800111c:	4770      	bx	lr
 800111e:	bf00      	nop
 8001120:	40023c00 	.word	0x40023c00

08001124 <FLASH_Program_HalfWord>:
 8001124:	4b07      	ldr	r3, [pc, #28]	@ (8001144 <FLASH_Program_HalfWord+0x20>)
 8001126:	691a      	ldr	r2, [r3, #16]
 8001128:	f422 7240 	bic.w	r2, r2, #768	@ 0x300
 800112c:	611a      	str	r2, [r3, #16]
 800112e:	691a      	ldr	r2, [r3, #16]
 8001130:	f442 7280 	orr.w	r2, r2, #256	@ 0x100
 8001134:	611a      	str	r2, [r3, #16]
 8001136:	691a      	ldr	r2, [r3, #16]
 8001138:	f042 0201 	orr.w	r2, r2, #1
 800113c:	611a      	str	r2, [r3, #16]
 800113e:	8001      	strh	r1, [r0, #0]
 8001140:	4770      	bx	lr
 8001142:	bf00      	nop
 8001144:	40023c00 	.word	0x40023c00

08001148 <FLASH_SetErrorCode>:
 8001148:	4b1a      	ldr	r3, [pc, #104]	@ (80011b4 <FLASH_SetErrorCode+0x6c>)
 800114a:	68da      	ldr	r2, [r3, #12]
 800114c:	06d2      	lsls	r2, r2, #27
 800114e:	d506      	bpl.n	800115e <FLASH_SetErrorCode+0x16>
 8001150:	4919      	ldr	r1, [pc, #100]	@ (80011b8 <FLASH_SetErrorCode+0x70>)
 8001152:	69ca      	ldr	r2, [r1, #28]
 8001154:	f042 0210 	orr.w	r2, r2, #16
 8001158:	61ca      	str	r2, [r1, #28]
 800115a:	2210      	movs	r2, #16
 800115c:	60da      	str	r2, [r3, #12]
 800115e:	68da      	ldr	r2, [r3, #12]
 8001160:	0690      	lsls	r0, r2, #26
 8001162:	d506      	bpl.n	8001172 <FLASH_SetErrorCode+0x2a>
 8001164:	4914      	ldr	r1, [pc, #80]	@ (80011b8 <FLASH_SetErrorCode+0x70>)
 8001166:	69ca      	ldr	r2, [r1, #28]
 8001168:	f042 0208 	orr.w	r2, r2, #8
 800116c:	61ca      	str	r2, [r1, #28]
 800116e:	2220      	movs	r2, #32
 8001170:	60da      	str	r2, [r3, #12]
 8001172:	4b10      	ldr	r3, [pc, #64]	@ (80011b4 <FLASH_SetErrorCode+0x6c>)
 8001174:	68da      	ldr	r2, [r3, #12]
 8001176:	0651      	lsls	r1, r2, #25
 8001178:	d506      	bpl.n	8001188 <FLASH_SetErrorCode+0x40>
 800117a:	490f      	ldr	r1, [pc, #60]	@ (80011b8 <FLASH_SetErrorCode+0x70>)
 800117c:	69ca      	ldr	r2, [r1, #28]
 800117e:	f042 0204 	orr.w	r2, r2, #4
 8001182:	61ca      	str	r2, [r1, #28]
 8001184:	2240      	movs	r2, #64	@ 0x40
 8001186:	60da      	str	r2, [r3, #12]
 8001188:	68da      	ldr	r2, [r3, #12]
 800118a:	0612      	lsls	r2, r2, #24
 800118c:	d506      	bpl.n	800119c <FLASH_SetErrorCode+0x54>
 800118e:	490a      	ldr	r1, [pc, #40]	@ (80011b8 <FLASH_SetErrorCode+0x70>)
 8001190:	69ca      	ldr	r2, [r1, #28]
 8001192:	f042 0202 	orr.w	r2, r2, #2
 8001196:	61ca      	str	r2, [r1, #28]
 8001198:	2280      	movs	r2, #128	@ 0x80
 800119a:	60da      	str	r2, [r3, #12]
 800119c:	4a05      	ldr	r2, [pc, #20]	@ (80011b4 <FLASH_SetErrorCode+0x6c>)
 800119e:	68d3      	ldr	r3, [r2, #12]
 80011a0:	079b      	lsls	r3, r3, #30
 80011a2:	d506      	bpl.n	80011b2 <FLASH_SetErrorCode+0x6a>
 80011a4:	4904      	ldr	r1, [pc, #16]	@ (80011b8 <FLASH_SetErrorCode+0x70>)
 80011a6:	69cb      	ldr	r3, [r1, #28]
 80011a8:	f043 0320 	orr.w	r3, r3, #32
 80011ac:	61cb      	str	r3, [r1, #28]
 80011ae:	2302      	movs	r3, #2
 80011b0:	60d3      	str	r3, [r2, #12]
 80011b2:	4770      	bx	lr
 80011b4:	40023c00 	.word	0x40023c00
 80011b8:	200015a4 	.word	0x200015a4

080011bc <HAL_FLASH_Unlock>:
 80011bc:	4b06      	ldr	r3, [pc, #24]	@ (80011d8 <HAL_FLASH_Unlock+0x1c>)
 80011be:	691a      	ldr	r2, [r3, #16]
 80011c0:	2a00      	cmp	r2, #0
 80011c2:	bfbf      	itttt	lt
 80011c4:	4a05      	ldrlt	r2, [pc, #20]	@ (80011dc <HAL_FLASH_Unlock+0x20>)
 80011c6:	605a      	strlt	r2, [r3, #4]
 80011c8:	f102 3288 	addlt.w	r2, r2, #2290649224	@ 0x88888888
 80011cc:	605a      	strlt	r2, [r3, #4]
 80011ce:	bfba      	itte	lt
 80011d0:	6918      	ldrlt	r0, [r3, #16]
 80011d2:	0fc0      	lsrlt	r0, r0, #31
 80011d4:	2000      	movge	r0, #0
 80011d6:	4770      	bx	lr
 80011d8:	40023c00 	.word	0x40023c00
 80011dc:	45670123 	.word	0x45670123

080011e0 <HAL_FLASH_Lock>:
 80011e0:	4a03      	ldr	r2, [pc, #12]	@ (80011f0 <HAL_FLASH_Lock+0x10>)
 80011e2:	6913      	ldr	r3, [r2, #16]
 80011e4:	f043 4300 	orr.w	r3, r3, #2147483648	@ 0x80000000
 80011e8:	6113      	str	r3, [r2, #16]
 80011ea:	2000      	movs	r0, #0
 80011ec:	4770      	bx	lr
 80011ee:	bf00      	nop
 80011f0:	40023c00 	.word	0x40023c00

080011f4 <FLASH_WaitForLastOperation>:
 80011f4:	4b11      	ldr	r3, [pc, #68]	@ (800123c <FLASH_WaitForLastOperation+0x48>)
 80011f6:	b570      	push	{r4, r5, r6, lr}
 80011f8:	2200      	movs	r2, #0
 80011fa:	4604      	mov	r4, r0
 80011fc:	61da      	str	r2, [r3, #28]
 80011fe:	f7ff feef 	bl	8000fe0 <HAL_GetTick>
 8001202:	4d0f      	ldr	r5, [pc, #60]	@ (8001240 <FLASH_WaitForLastOperation+0x4c>)
 8001204:	4606      	mov	r6, r0
 8001206:	68eb      	ldr	r3, [r5, #12]
 8001208:	03da      	lsls	r2, r3, #15
 800120a:	d40c      	bmi.n	8001226 <FLASH_WaitForLastOperation+0x32>
 800120c:	68eb      	ldr	r3, [r5, #12]
 800120e:	07db      	lsls	r3, r3, #31
 8001210:	bf44      	itt	mi
 8001212:	2301      	movmi	r3, #1
 8001214:	60eb      	strmi	r3, [r5, #12]
 8001216:	68e8      	ldr	r0, [r5, #12]
 8001218:	f010 00f2 	ands.w	r0, r0, #242	@ 0xf2
 800121c:	d007      	beq.n	800122e <FLASH_WaitForLastOperation+0x3a>
 800121e:	f7ff ff93 	bl	8001148 <FLASH_SetErrorCode>
 8001222:	2001      	movs	r0, #1
 8001224:	e003      	b.n	800122e <FLASH_WaitForLastOperation+0x3a>
 8001226:	1c61      	adds	r1, r4, #1
 8001228:	d0ed      	beq.n	8001206 <FLASH_WaitForLastOperation+0x12>
 800122a:	b90c      	cbnz	r4, 8001230 <FLASH_WaitForLastOperation+0x3c>
 800122c:	2003      	movs	r0, #3
 800122e:	bd70      	pop	{r4, r5, r6, pc}
 8001230:	f7ff fed6 	bl	8000fe0 <HAL_GetTick>
 8001234:	1b80      	subs	r0, r0, r6
 8001236:	42a0      	cmp	r0, r4
 8001238:	d9e5      	bls.n	8001206 <FLASH_WaitForLastOperation+0x12>
 800123a:	e7f7      	b.n	800122c <FLASH_WaitForLastOperation+0x38>
 800123c:	200015a4 	.word	0x200015a4
 8001240:	40023c00 	.word	0x40023c00

08001244 <HAL_FLASH_Program>:
 8001244:	e92d 41f0 	stmdb	sp!, {r4, r5, r6, r7, r8, lr}
 8001248:	4e1f      	ldr	r6, [pc, #124]	@ (80012c8 <HAL_FLASH_Program+0x84>)
 800124a:	4698      	mov	r8, r3
 800124c:	7e33      	ldrb	r3, [r6, #24]
 800124e:	2b01      	cmp	r3, #1
 8001250:	4607      	mov	r7, r0
 8001252:	460d      	mov	r5, r1
 8001254:	4614      	mov	r4, r2
 8001256:	d035      	beq.n	80012c4 <HAL_FLASH_Program+0x80>
 8001258:	2301      	movs	r3, #1
 800125a:	f24c 3050 	movw	r0, #50000	@ 0xc350
 800125e:	7633      	strb	r3, [r6, #24]
 8001260:	f7ff ffc8 	bl	80011f4 <FLASH_WaitForLastOperation>
 8001264:	b9b0      	cbnz	r0, 8001294 <HAL_FLASH_Program+0x50>
 8001266:	b9cf      	cbnz	r7, 800129c <HAL_FLASH_Program+0x58>
 8001268:	4b18      	ldr	r3, [pc, #96]	@ (80012cc <HAL_FLASH_Program+0x88>)
 800126a:	691a      	ldr	r2, [r3, #16]
 800126c:	f422 7240 	bic.w	r2, r2, #768	@ 0x300
 8001270:	611a      	str	r2, [r3, #16]
 8001272:	691a      	ldr	r2, [r3, #16]
 8001274:	611a      	str	r2, [r3, #16]
 8001276:	691a      	ldr	r2, [r3, #16]
 8001278:	b2e4      	uxtb	r4, r4
 800127a:	f042 0201 	orr.w	r2, r2, #1
 800127e:	611a      	str	r2, [r3, #16]
 8001280:	702c      	strb	r4, [r5, #0]
 8001282:	f24c 3050 	movw	r0, #50000	@ 0xc350
 8001286:	f7ff ffb5 	bl	80011f4 <FLASH_WaitForLastOperation>
 800128a:	4a10      	ldr	r2, [pc, #64]	@ (80012cc <HAL_FLASH_Program+0x88>)
 800128c:	6913      	ldr	r3, [r2, #16]
 800128e:	f023 0301 	bic.w	r3, r3, #1
 8001292:	6113      	str	r3, [r2, #16]
 8001294:	2300      	movs	r3, #0
 8001296:	7633      	strb	r3, [r6, #24]
 8001298:	e8bd 81f0 	ldmia.w	sp!, {r4, r5, r6, r7, r8, pc}
 800129c:	2f01      	cmp	r7, #1
 800129e:	d104      	bne.n	80012aa <HAL_FLASH_Program+0x66>
 80012a0:	b2a1      	uxth	r1, r4
 80012a2:	4628      	mov	r0, r5
 80012a4:	f7ff ff3e 	bl	8001124 <FLASH_Program_HalfWord>
 80012a8:	e7eb      	b.n	8001282 <HAL_FLASH_Program+0x3e>
 80012aa:	2f02      	cmp	r7, #2
 80012ac:	d104      	bne.n	80012b8 <HAL_FLASH_Program+0x74>
 80012ae:	4621      	mov	r1, r4
 80012b0:	4628      	mov	r0, r5
 80012b2:	f7ff ff25 	bl	8001100 <FLASH_Program_Word>
 80012b6:	e7e4      	b.n	8001282 <HAL_FLASH_Program+0x3e>
 80012b8:	4622      	mov	r2, r4
 80012ba:	4643      	mov	r3, r8
 80012bc:	4628      	mov	r0, r5
 80012be:	f7ff ff09 	bl	80010d4 <FLASH_Program_DoubleWord>
 80012c2:	e7de      	b.n	8001282 <HAL_FLASH_Program+0x3e>
 80012c4:	2002      	movs	r0, #2
 80012c6:	e7e7      	b.n	8001298 <HAL_FLASH_Program+0x54>
 80012c8:	200015a4 	.word	0x200015a4
 80012cc:	40023c00 	.word	0x40023c00

080012d0 <FLASH_Erase_Sector>:
 80012d0:	4b0d      	ldr	r3, [pc, #52]	@ (8001308 <FLASH_Erase_Sector+0x38>)
 80012d2:	691a      	ldr	r2, [r3, #16]
 80012d4:	f422 7240 	bic.w	r2, r2, #768	@ 0x300
 80012d8:	611a      	str	r2, [r3, #16]
 80012da:	691a      	ldr	r2, [r3, #16]
 80012dc:	2902      	cmp	r1, #2
 80012de:	bf94      	ite	ls
 80012e0:	0209      	lslls	r1, r1, #8
 80012e2:	f44f 7140 	movhi.w	r1, #768	@ 0x300
 80012e6:	430a      	orrs	r2, r1
 80012e8:	611a      	str	r2, [r3, #16]
 80012ea:	691a      	ldr	r2, [r3, #16]
 80012ec:	f022 0278 	bic.w	r2, r2, #120	@ 0x78
 80012f0:	611a      	str	r2, [r3, #16]
 80012f2:	691a      	ldr	r2, [r3, #16]
 80012f4:	ea42 00c0 	orr.w	r0, r2, r0, lsl #3
 80012f8:	f040 0002 	orr.w	r0, r0, #2
 80012fc:	6118      	str	r0, [r3, #16]
 80012fe:	691a      	ldr	r2, [r3, #16]
 8001300:	f442 3280 	orr.w	r2, r2, #65536	@ 0x10000
 8001304:	611a      	str	r2, [r3, #16]
 8001306:	4770      	bx	lr
 8001308:	40023c00 	.word	0x40023c00

0800130c <HAL_GPIO_Init>:
 800130c:	e92d 4ff7 	stmdb	sp!, {r0, r1, r2, r4, r5, r6, r7, r8, r9, sl, fp, lr}
 8001310:	f8df 91a4 	ldr.w	r9, [pc, #420]	@ 80014b8 <HAL_GPIO_Init+0x1ac>
 8001314:	4a66      	ldr	r2, [pc, #408]	@ (80014b0 <HAL_GPIO_Init+0x1a4>)
 8001316:	2300      	movs	r3, #0
 8001318:	680d      	ldr	r5, [r1, #0]
 800131a:	2401      	movs	r4, #1
 800131c:	409c      	lsls	r4, r3
 800131e:	ea04 0605 	and.w	r6, r4, r5
 8001322:	43ac      	bics	r4, r5
 8001324:	f040 80af 	bne.w	8001486 <HAL_GPIO_Init+0x17a>
 8001328:	684d      	ldr	r5, [r1, #4]
 800132a:	2703      	movs	r7, #3
 800132c:	f005 0403 	and.w	r4, r5, #3
 8001330:	ea4f 0843 	mov.w	r8, r3, lsl #1
 8001334:	fa07 fc08 	lsl.w	ip, r7, r8
 8001338:	1e67      	subs	r7, r4, #1
 800133a:	2f01      	cmp	r7, #1
 800133c:	ea6f 0c0c 	mvn.w	ip, ip
 8001340:	d834      	bhi.n	80013ac <HAL_GPIO_Init+0xa0>
 8001342:	6887      	ldr	r7, [r0, #8]
 8001344:	ea07 0e0c 	and.w	lr, r7, ip
 8001348:	68cf      	ldr	r7, [r1, #12]
 800134a:	fa07 f708 	lsl.w	r7, r7, r8
 800134e:	ea47 070e 	orr.w	r7, r7, lr
 8001352:	6087      	str	r7, [r0, #8]
 8001354:	6847      	ldr	r7, [r0, #4]
 8001356:	ea27 0e06 	bic.w	lr, r7, r6
 800135a:	f3c5 1700 	ubfx	r7, r5, #4, #1
 800135e:	409f      	lsls	r7, r3
 8001360:	ea47 070e 	orr.w	r7, r7, lr
 8001364:	6047      	str	r7, [r0, #4]
 8001366:	68c7      	ldr	r7, [r0, #12]
 8001368:	ea07 0e0c 	and.w	lr, r7, ip
 800136c:	688f      	ldr	r7, [r1, #8]
 800136e:	fa07 f708 	lsl.w	r7, r7, r8
 8001372:	ea47 070e 	orr.w	r7, r7, lr
 8001376:	2c02      	cmp	r4, #2
 8001378:	60c7      	str	r7, [r0, #12]
 800137a:	d119      	bne.n	80013b0 <HAL_GPIO_Init+0xa4>
 800137c:	ea4f 0ad3 	mov.w	sl, r3, lsr #3
 8001380:	eb00 0a8a 	add.w	sl, r0, sl, lsl #2
 8001384:	f003 0b07 	and.w	fp, r3, #7
 8001388:	f8da 7020 	ldr.w	r7, [sl, #32]
 800138c:	ea4f 0b8b 	mov.w	fp, fp, lsl #2
 8001390:	f04f 0e0f 	mov.w	lr, #15
 8001394:	fa0e fe0b 	lsl.w	lr, lr, fp
 8001398:	ea27 0e0e 	bic.w	lr, r7, lr
 800139c:	690f      	ldr	r7, [r1, #16]
 800139e:	fa07 f70b 	lsl.w	r7, r7, fp
 80013a2:	ea47 070e 	orr.w	r7, r7, lr
 80013a6:	f8ca 7020 	str.w	r7, [sl, #32]
 80013aa:	e001      	b.n	80013b0 <HAL_GPIO_Init+0xa4>
 80013ac:	2c03      	cmp	r4, #3
 80013ae:	d1da      	bne.n	8001366 <HAL_GPIO_Init+0x5a>
 80013b0:	6807      	ldr	r7, [r0, #0]
 80013b2:	fa04 f408 	lsl.w	r4, r4, r8
 80013b6:	ea07 070c 	and.w	r7, r7, ip
 80013ba:	433c      	orrs	r4, r7
 80013bc:	f415 3f40 	tst.w	r5, #196608	@ 0x30000
 80013c0:	6004      	str	r4, [r0, #0]
 80013c2:	d060      	beq.n	8001486 <HAL_GPIO_Init+0x17a>
 80013c4:	2400      	movs	r4, #0
 80013c6:	9401      	str	r4, [sp, #4]
 80013c8:	f8d9 4044 	ldr.w	r4, [r9, #68]	@ 0x44
 80013cc:	f444 4480 	orr.w	r4, r4, #16384	@ 0x4000
 80013d0:	f8c9 4044 	str.w	r4, [r9, #68]	@ 0x44
 80013d4:	f8d9 4044 	ldr.w	r4, [r9, #68]	@ 0x44
 80013d8:	f023 0703 	bic.w	r7, r3, #3
 80013dc:	f107 4780 	add.w	r7, r7, #1073741824	@ 0x40000000
 80013e0:	f404 4480 	and.w	r4, r4, #16384	@ 0x4000
 80013e4:	f507 379c 	add.w	r7, r7, #79872	@ 0x13800
 80013e8:	9401      	str	r4, [sp, #4]
 80013ea:	f003 0c03 	and.w	ip, r3, #3
 80013ee:	9c01      	ldr	r4, [sp, #4]
 80013f0:	f8d7 e008 	ldr.w	lr, [r7, #8]
 80013f4:	ea4f 0c8c 	mov.w	ip, ip, lsl #2
 80013f8:	240f      	movs	r4, #15
 80013fa:	fa04 f40c 	lsl.w	r4, r4, ip
 80013fe:	ea2e 0e04 	bic.w	lr, lr, r4
 8001402:	4c2c      	ldr	r4, [pc, #176]	@ (80014b4 <HAL_GPIO_Init+0x1a8>)
 8001404:	42a0      	cmp	r0, r4
 8001406:	d045      	beq.n	8001494 <HAL_GPIO_Init+0x188>
 8001408:	f504 6480 	add.w	r4, r4, #1024	@ 0x400
 800140c:	42a0      	cmp	r0, r4
 800140e:	d043      	beq.n	8001498 <HAL_GPIO_Init+0x18c>
 8001410:	f504 6480 	add.w	r4, r4, #1024	@ 0x400
 8001414:	42a0      	cmp	r0, r4
 8001416:	d041      	beq.n	800149c <HAL_GPIO_Init+0x190>
 8001418:	f504 6480 	add.w	r4, r4, #1024	@ 0x400
 800141c:	42a0      	cmp	r0, r4
 800141e:	d03f      	beq.n	80014a0 <HAL_GPIO_Init+0x194>
 8001420:	f504 6480 	add.w	r4, r4, #1024	@ 0x400
 8001424:	42a0      	cmp	r0, r4
 8001426:	d03d      	beq.n	80014a4 <HAL_GPIO_Init+0x198>
 8001428:	f504 6480 	add.w	r4, r4, #1024	@ 0x400
 800142c:	42a0      	cmp	r0, r4
 800142e:	d03b      	beq.n	80014a8 <HAL_GPIO_Init+0x19c>
 8001430:	f504 6480 	add.w	r4, r4, #1024	@ 0x400
 8001434:	42a0      	cmp	r0, r4
 8001436:	d039      	beq.n	80014ac <HAL_GPIO_Init+0x1a0>
 8001438:	f504 6480 	add.w	r4, r4, #1024	@ 0x400
 800143c:	42a0      	cmp	r0, r4
 800143e:	bf14      	ite	ne
 8001440:	2408      	movne	r4, #8
 8001442:	2407      	moveq	r4, #7
 8001444:	fa04 f40c 	lsl.w	r4, r4, ip
 8001448:	ea44 040e 	orr.w	r4, r4, lr
 800144c:	60bc      	str	r4, [r7, #8]
 800144e:	6894      	ldr	r4, [r2, #8]
 8001450:	43f7      	mvns	r7, r6
 8001452:	f415 1f80 	tst.w	r5, #1048576	@ 0x100000
 8001456:	bf0c      	ite	eq
 8001458:	403c      	andeq	r4, r7
 800145a:	4334      	orrne	r4, r6
 800145c:	6094      	str	r4, [r2, #8]
 800145e:	68d4      	ldr	r4, [r2, #12]
 8001460:	f415 1f00 	tst.w	r5, #2097152	@ 0x200000
 8001464:	bf0c      	ite	eq
 8001466:	403c      	andeq	r4, r7
 8001468:	4334      	orrne	r4, r6
 800146a:	60d4      	str	r4, [r2, #12]
 800146c:	6854      	ldr	r4, [r2, #4]
 800146e:	f415 3f00 	tst.w	r5, #131072	@ 0x20000
 8001472:	bf0c      	ite	eq
 8001474:	403c      	andeq	r4, r7
 8001476:	4334      	orrne	r4, r6
 8001478:	6054      	str	r4, [r2, #4]
 800147a:	6814      	ldr	r4, [r2, #0]
 800147c:	03ed      	lsls	r5, r5, #15
 800147e:	bf54      	ite	pl
 8001480:	403c      	andpl	r4, r7
 8001482:	4334      	orrmi	r4, r6
 8001484:	6014      	str	r4, [r2, #0]
 8001486:	3301      	adds	r3, #1
 8001488:	2b10      	cmp	r3, #16
 800148a:	f47f af45 	bne.w	8001318 <HAL_GPIO_Init+0xc>
 800148e:	b003      	add	sp, #12
 8001490:	e8bd 8ff0 	ldmia.w	sp!, {r4, r5, r6, r7, r8, r9, sl, fp, pc}
 8001494:	2400      	movs	r4, #0
 8001496:	e7d5      	b.n	8001444 <HAL_GPIO_Init+0x138>
 8001498:	2401      	movs	r4, #1
 800149a:	e7d3      	b.n	8001444 <HAL_GPIO_Init+0x138>
 800149c:	2402      	movs	r4, #2
 800149e:	e7d1      	b.n	8001444 <HAL_GPIO_Init+0x138>
 80014a0:	2403      	movs	r4, #3
 80014a2:	e7cf      	b.n	8001444 <HAL_GPIO_Init+0x138>
 80014a4:	2404      	movs	r4, #4
 80014a6:	e7cd      	b.n	8001444 <HAL_GPIO_Init+0x138>
 80014a8:	2405      	movs	r4, #5
 80014aa:	e7cb      	b.n	8001444 <HAL_GPIO_Init+0x138>
 80014ac:	2406      	movs	r4, #6
 80014ae:	e7c9      	b.n	8001444 <HAL_GPIO_Init+0x138>
 80014b0:	40013c00 	.word	0x40013c00
 80014b4:	40020000 	.word	0x40020000
 80014b8:	40023800 	.word	0x40023800

080014bc <HAL_GPIO_ReadPin>:
 80014bc:	6903      	ldr	r3, [r0, #16]
 80014be:	4219      	tst	r1, r3
 80014c0:	bf14      	ite	ne
 80014c2:	2001      	movne	r0, #1
 80014c4:	2000      	moveq	r0, #0
 80014c6:	4770      	bx	lr

080014c8 <HAL_GPIO_WritePin>:
 80014c8:	b10a      	cbz	r2, 80014ce <HAL_GPIO_WritePin+0x6>
 80014ca:	6181      	str	r1, [r0, #24]
 80014cc:	4770      	bx	lr
 80014ce:	0409      	lsls	r1, r1, #16
 80014d0:	e7fb      	b.n	80014ca <HAL_GPIO_WritePin+0x2>

080014d2 <HAL_GPIO_TogglePin>:
 80014d2:	6943      	ldr	r3, [r0, #20]
 80014d4:	ea01 0203 	and.w	r2, r1, r3
 80014d8:	ea21 0103 	bic.w	r1, r1, r3
 80014dc:	ea41 4102 	orr.w	r1, r1, r2, lsl #16
 80014e0:	6181      	str	r1, [r0, #24]
 80014e2:	4770      	bx	lr

080014e4 <HAL_PWR_EnableBkUpAccess>:
 80014e4:	4b04      	ldr	r3, [pc, #16]	@ (80014f8 <HAL_PWR_EnableBkUpAccess+0x14>)
 80014e6:	2201      	movs	r2, #1
 80014e8:	b082      	sub	sp, #8
 80014ea:	621a      	str	r2, [r3, #32]
 80014ec:	4b03      	ldr	r3, [pc, #12]	@ (80014fc <HAL_PWR_EnableBkUpAccess+0x18>)
 80014ee:	681b      	ldr	r3, [r3, #0]
 80014f0:	9301      	str	r3, [sp, #4]
 80014f2:	9b01      	ldr	r3, [sp, #4]
 80014f4:	b002      	add	sp, #8
 80014f6:	4770      	bx	lr
 80014f8:	420e0000 	.word	0x420e0000
 80014fc:	40007000 	.word	0x40007000

08001500 <HAL_PWR_DisableBkUpAccess>:
 8001500:	4b04      	ldr	r3, [pc, #16]	@ (8001514 <HAL_PWR_DisableBkUpAccess+0x14>)
 8001502:	2200      	movs	r2, #0
 8001504:	b082      	sub	sp, #8
 8001506:	621a      	str	r2, [r3, #32]
 8001508:	4b03      	ldr	r3, [pc, #12]	@ (8001518 <HAL_PWR_DisableBkUpAccess+0x18>)
 800150a:	681b      	ldr	r3, [r3, #0]
 800150c:	9301      	str	r3, [sp, #4]
 800150e:	9b01      	ldr	r3, [sp, #4]
 8001510:	b002      	add	sp, #8
 8001512:	4770      	bx	lr
 8001514:	420e0000 	.word	0x420e0000
 8001518:	40007000 	.word	0x40007000

0800151c <HAL_RCC_OscConfig>:
 800151c:	e92d 41f3 	stmdb	sp!, {r0, r1, r4, r5, r6, r7, r8, lr}
 8001520:	4604      	mov	r4, r0
 8001522:	b340      	cbz	r0, 8001576 <HAL_RCC_OscConfig+0x5a>
 8001524:	6803      	ldr	r3, [r0, #0]
 8001526:	07de      	lsls	r6, r3, #31
 8001528:	d410      	bmi.n	800154c <HAL_RCC_OscConfig+0x30>
 800152a:	6823      	ldr	r3, [r4, #0]
 800152c:	079d      	lsls	r5, r3, #30
 800152e:	d45b      	bmi.n	80015e8 <HAL_RCC_OscConfig+0xcc>
 8001530:	6823      	ldr	r3, [r4, #0]
 8001532:	0719      	lsls	r1, r3, #28
 8001534:	f100 809d 	bmi.w	8001672 <HAL_RCC_OscConfig+0x156>
 8001538:	6823      	ldr	r3, [r4, #0]
 800153a:	075a      	lsls	r2, r3, #29
 800153c:	f100 80bd 	bmi.w	80016ba <HAL_RCC_OscConfig+0x19e>
 8001540:	69a3      	ldr	r3, [r4, #24]
 8001542:	2b00      	cmp	r3, #0
 8001544:	f040 8124 	bne.w	8001790 <HAL_RCC_OscConfig+0x274>
 8001548:	2000      	movs	r0, #0
 800154a:	e02c      	b.n	80015a6 <HAL_RCC_OscConfig+0x8a>
 800154c:	4b8d      	ldr	r3, [pc, #564]	@ (8001784 <HAL_RCC_OscConfig+0x268>)
 800154e:	689a      	ldr	r2, [r3, #8]
 8001550:	f002 020c 	and.w	r2, r2, #12
 8001554:	2a04      	cmp	r2, #4
 8001556:	d007      	beq.n	8001568 <HAL_RCC_OscConfig+0x4c>
 8001558:	689a      	ldr	r2, [r3, #8]
 800155a:	f002 020c 	and.w	r2, r2, #12
 800155e:	2a08      	cmp	r2, #8
 8001560:	d10b      	bne.n	800157a <HAL_RCC_OscConfig+0x5e>
 8001562:	685b      	ldr	r3, [r3, #4]
 8001564:	0259      	lsls	r1, r3, #9
 8001566:	d508      	bpl.n	800157a <HAL_RCC_OscConfig+0x5e>
 8001568:	4b86      	ldr	r3, [pc, #536]	@ (8001784 <HAL_RCC_OscConfig+0x268>)
 800156a:	681b      	ldr	r3, [r3, #0]
 800156c:	039a      	lsls	r2, r3, #14
 800156e:	d5dc      	bpl.n	800152a <HAL_RCC_OscConfig+0xe>
 8001570:	6863      	ldr	r3, [r4, #4]
 8001572:	2b00      	cmp	r3, #0
 8001574:	d1d9      	bne.n	800152a <HAL_RCC_OscConfig+0xe>
 8001576:	2001      	movs	r0, #1
 8001578:	e015      	b.n	80015a6 <HAL_RCC_OscConfig+0x8a>
 800157a:	6863      	ldr	r3, [r4, #4]
 800157c:	4d81      	ldr	r5, [pc, #516]	@ (8001784 <HAL_RCC_OscConfig+0x268>)
 800157e:	f5b3 3f80 	cmp.w	r3, #65536	@ 0x10000
 8001582:	d113      	bne.n	80015ac <HAL_RCC_OscConfig+0x90>
 8001584:	682b      	ldr	r3, [r5, #0]
 8001586:	f443 3380 	orr.w	r3, r3, #65536	@ 0x10000
 800158a:	602b      	str	r3, [r5, #0]
 800158c:	f7ff fd28 	bl	8000fe0 <HAL_GetTick>
 8001590:	4e7c      	ldr	r6, [pc, #496]	@ (8001784 <HAL_RCC_OscConfig+0x268>)
 8001592:	4605      	mov	r5, r0
 8001594:	6833      	ldr	r3, [r6, #0]
 8001596:	039b      	lsls	r3, r3, #14
 8001598:	d4c7      	bmi.n	800152a <HAL_RCC_OscConfig+0xe>
 800159a:	f7ff fd21 	bl	8000fe0 <HAL_GetTick>
 800159e:	1b40      	subs	r0, r0, r5
 80015a0:	2864      	cmp	r0, #100	@ 0x64
 80015a2:	d9f7      	bls.n	8001594 <HAL_RCC_OscConfig+0x78>
 80015a4:	2003      	movs	r0, #3
 80015a6:	b002      	add	sp, #8
 80015a8:	e8bd 81f0 	ldmia.w	sp!, {r4, r5, r6, r7, r8, pc}
 80015ac:	f5b3 2fa0 	cmp.w	r3, #327680	@ 0x50000
 80015b0:	d104      	bne.n	80015bc <HAL_RCC_OscConfig+0xa0>
 80015b2:	682b      	ldr	r3, [r5, #0]
 80015b4:	f443 2380 	orr.w	r3, r3, #262144	@ 0x40000
 80015b8:	602b      	str	r3, [r5, #0]
 80015ba:	e7e3      	b.n	8001584 <HAL_RCC_OscConfig+0x68>
 80015bc:	682a      	ldr	r2, [r5, #0]
 80015be:	f422 3280 	bic.w	r2, r2, #65536	@ 0x10000
 80015c2:	602a      	str	r2, [r5, #0]
 80015c4:	682a      	ldr	r2, [r5, #0]
 80015c6:	f422 2280 	bic.w	r2, r2, #262144	@ 0x40000
 80015ca:	602a      	str	r2, [r5, #0]
 80015cc:	2b00      	cmp	r3, #0
 80015ce:	d1dd      	bne.n	800158c <HAL_RCC_OscConfig+0x70>
 80015d0:	f7ff fd06 	bl	8000fe0 <HAL_GetTick>
 80015d4:	4606      	mov	r6, r0
 80015d6:	682b      	ldr	r3, [r5, #0]
 80015d8:	039f      	lsls	r7, r3, #14
 80015da:	d5a6      	bpl.n	800152a <HAL_RCC_OscConfig+0xe>
 80015dc:	f7ff fd00 	bl	8000fe0 <HAL_GetTick>
 80015e0:	1b80      	subs	r0, r0, r6
 80015e2:	2864      	cmp	r0, #100	@ 0x64
 80015e4:	d9f7      	bls.n	80015d6 <HAL_RCC_OscConfig+0xba>
 80015e6:	e7dd      	b.n	80015a4 <HAL_RCC_OscConfig+0x88>
 80015e8:	4b66      	ldr	r3, [pc, #408]	@ (8001784 <HAL_RCC_OscConfig+0x268>)
 80015ea:	689a      	ldr	r2, [r3, #8]
 80015ec:	f012 0f0c 	tst.w	r2, #12
 80015f0:	d007      	beq.n	8001602 <HAL_RCC_OscConfig+0xe6>
 80015f2:	689a      	ldr	r2, [r3, #8]
 80015f4:	f002 020c 	and.w	r2, r2, #12
 80015f8:	2a08      	cmp	r2, #8
 80015fa:	d111      	bne.n	8001620 <HAL_RCC_OscConfig+0x104>
 80015fc:	685b      	ldr	r3, [r3, #4]
 80015fe:	025d      	lsls	r5, r3, #9
 8001600:	d40e      	bmi.n	8001620 <HAL_RCC_OscConfig+0x104>
 8001602:	4a60      	ldr	r2, [pc, #384]	@ (8001784 <HAL_RCC_OscConfig+0x268>)
 8001604:	6813      	ldr	r3, [r2, #0]
 8001606:	0799      	lsls	r1, r3, #30
 8001608:	d502      	bpl.n	8001610 <HAL_RCC_OscConfig+0xf4>
 800160a:	68e3      	ldr	r3, [r4, #12]
 800160c:	2b01      	cmp	r3, #1
 800160e:	d1b2      	bne.n	8001576 <HAL_RCC_OscConfig+0x5a>
 8001610:	6813      	ldr	r3, [r2, #0]
 8001612:	6921      	ldr	r1, [r4, #16]
 8001614:	f023 03f8 	bic.w	r3, r3, #248	@ 0xf8
 8001618:	ea43 03c1 	orr.w	r3, r3, r1, lsl #3
 800161c:	6013      	str	r3, [r2, #0]
 800161e:	e787      	b.n	8001530 <HAL_RCC_OscConfig+0x14>
 8001620:	68e2      	ldr	r2, [r4, #12]
 8001622:	4b59      	ldr	r3, [pc, #356]	@ (8001788 <HAL_RCC_OscConfig+0x26c>)
 8001624:	b1b2      	cbz	r2, 8001654 <HAL_RCC_OscConfig+0x138>
 8001626:	2201      	movs	r2, #1
 8001628:	601a      	str	r2, [r3, #0]
 800162a:	f7ff fcd9 	bl	8000fe0 <HAL_GetTick>
 800162e:	4d55      	ldr	r5, [pc, #340]	@ (8001784 <HAL_RCC_OscConfig+0x268>)
 8001630:	4606      	mov	r6, r0
 8001632:	682b      	ldr	r3, [r5, #0]
 8001634:	079b      	lsls	r3, r3, #30
 8001636:	d507      	bpl.n	8001648 <HAL_RCC_OscConfig+0x12c>
 8001638:	682b      	ldr	r3, [r5, #0]
 800163a:	6922      	ldr	r2, [r4, #16]
 800163c:	f023 03f8 	bic.w	r3, r3, #248	@ 0xf8
 8001640:	ea43 03c2 	orr.w	r3, r3, r2, lsl #3
 8001644:	602b      	str	r3, [r5, #0]
 8001646:	e773      	b.n	8001530 <HAL_RCC_OscConfig+0x14>
 8001648:	f7ff fcca 	bl	8000fe0 <HAL_GetTick>
 800164c:	1b80      	subs	r0, r0, r6
 800164e:	2802      	cmp	r0, #2
 8001650:	d9ef      	bls.n	8001632 <HAL_RCC_OscConfig+0x116>
 8001652:	e7a7      	b.n	80015a4 <HAL_RCC_OscConfig+0x88>
 8001654:	601a      	str	r2, [r3, #0]
 8001656:	f7ff fcc3 	bl	8000fe0 <HAL_GetTick>
 800165a:	4e4a      	ldr	r6, [pc, #296]	@ (8001784 <HAL_RCC_OscConfig+0x268>)
 800165c:	4605      	mov	r5, r0
 800165e:	6833      	ldr	r3, [r6, #0]
 8001660:	079f      	lsls	r7, r3, #30
 8001662:	f57f af65 	bpl.w	8001530 <HAL_RCC_OscConfig+0x14>
 8001666:	f7ff fcbb 	bl	8000fe0 <HAL_GetTick>
 800166a:	1b40      	subs	r0, r0, r5
 800166c:	2802      	cmp	r0, #2
 800166e:	d9f6      	bls.n	800165e <HAL_RCC_OscConfig+0x142>
 8001670:	e798      	b.n	80015a4 <HAL_RCC_OscConfig+0x88>
 8001672:	6962      	ldr	r2, [r4, #20]
 8001674:	4b44      	ldr	r3, [pc, #272]	@ (8001788 <HAL_RCC_OscConfig+0x26c>)
 8001676:	b182      	cbz	r2, 800169a <HAL_RCC_OscConfig+0x17e>
 8001678:	2201      	movs	r2, #1
 800167a:	f8c3 2e80 	str.w	r2, [r3, #3712]	@ 0xe80
 800167e:	f7ff fcaf 	bl	8000fe0 <HAL_GetTick>
 8001682:	4e40      	ldr	r6, [pc, #256]	@ (8001784 <HAL_RCC_OscConfig+0x268>)
 8001684:	4605      	mov	r5, r0
 8001686:	6f73      	ldr	r3, [r6, #116]	@ 0x74
 8001688:	079b      	lsls	r3, r3, #30
 800168a:	f53f af55 	bmi.w	8001538 <HAL_RCC_OscConfig+0x1c>
 800168e:	f7ff fca7 	bl	8000fe0 <HAL_GetTick>
 8001692:	1b40      	subs	r0, r0, r5
 8001694:	2802      	cmp	r0, #2
 8001696:	d9f6      	bls.n	8001686 <HAL_RCC_OscConfig+0x16a>
 8001698:	e784      	b.n	80015a4 <HAL_RCC_OscConfig+0x88>
 800169a:	f8c3 2e80 	str.w	r2, [r3, #3712]	@ 0xe80
 800169e:	f7ff fc9f 	bl	8000fe0 <HAL_GetTick>
 80016a2:	4e38      	ldr	r6, [pc, #224]	@ (8001784 <HAL_RCC_OscConfig+0x268>)
 80016a4:	4605      	mov	r5, r0
 80016a6:	6f73      	ldr	r3, [r6, #116]	@ 0x74
 80016a8:	079f      	lsls	r7, r3, #30
 80016aa:	f57f af45 	bpl.w	8001538 <HAL_RCC_OscConfig+0x1c>
 80016ae:	f7ff fc97 	bl	8000fe0 <HAL_GetTick>
 80016b2:	1b40      	subs	r0, r0, r5
 80016b4:	2802      	cmp	r0, #2
 80016b6:	d9f6      	bls.n	80016a6 <HAL_RCC_OscConfig+0x18a>
 80016b8:	e774      	b.n	80015a4 <HAL_RCC_OscConfig+0x88>
 80016ba:	4b32      	ldr	r3, [pc, #200]	@ (8001784 <HAL_RCC_OscConfig+0x268>)
 80016bc:	6c1a      	ldr	r2, [r3, #64]	@ 0x40
 80016be:	f012 5280 	ands.w	r2, r2, #268435456	@ 0x10000000
 80016c2:	d128      	bne.n	8001716 <HAL_RCC_OscConfig+0x1fa>
 80016c4:	9201      	str	r2, [sp, #4]
 80016c6:	6c1a      	ldr	r2, [r3, #64]	@ 0x40
 80016c8:	f042 5280 	orr.w	r2, r2, #268435456	@ 0x10000000
 80016cc:	641a      	str	r2, [r3, #64]	@ 0x40
 80016ce:	6c1b      	ldr	r3, [r3, #64]	@ 0x40
 80016d0:	f003 5380 	and.w	r3, r3, #268435456	@ 0x10000000
 80016d4:	9301      	str	r3, [sp, #4]
 80016d6:	9b01      	ldr	r3, [sp, #4]
 80016d8:	2701      	movs	r7, #1
 80016da:	4d2c      	ldr	r5, [pc, #176]	@ (800178c <HAL_RCC_OscConfig+0x270>)
 80016dc:	682b      	ldr	r3, [r5, #0]
 80016de:	05d8      	lsls	r0, r3, #23
 80016e0:	d51b      	bpl.n	800171a <HAL_RCC_OscConfig+0x1fe>
 80016e2:	68a3      	ldr	r3, [r4, #8]
 80016e4:	4d27      	ldr	r5, [pc, #156]	@ (8001784 <HAL_RCC_OscConfig+0x268>)
 80016e6:	2b01      	cmp	r3, #1
 80016e8:	d127      	bne.n	800173a <HAL_RCC_OscConfig+0x21e>
 80016ea:	6f2b      	ldr	r3, [r5, #112]	@ 0x70
 80016ec:	f043 0301 	orr.w	r3, r3, #1
 80016f0:	672b      	str	r3, [r5, #112]	@ 0x70
 80016f2:	f7ff fc75 	bl	8000fe0 <HAL_GetTick>
 80016f6:	4e23      	ldr	r6, [pc, #140]	@ (8001784 <HAL_RCC_OscConfig+0x268>)
 80016f8:	4605      	mov	r5, r0
 80016fa:	f241 3888 	movw	r8, #5000	@ 0x1388
 80016fe:	6f33      	ldr	r3, [r6, #112]	@ 0x70
 8001700:	079a      	lsls	r2, r3, #30
 8001702:	d539      	bpl.n	8001778 <HAL_RCC_OscConfig+0x25c>
 8001704:	2f00      	cmp	r7, #0
 8001706:	f43f af1b 	beq.w	8001540 <HAL_RCC_OscConfig+0x24>
 800170a:	4a1e      	ldr	r2, [pc, #120]	@ (8001784 <HAL_RCC_OscConfig+0x268>)
 800170c:	6c13      	ldr	r3, [r2, #64]	@ 0x40
 800170e:	f023 5380 	bic.w	r3, r3, #268435456	@ 0x10000000
 8001712:	6413      	str	r3, [r2, #64]	@ 0x40
 8001714:	e714      	b.n	8001540 <HAL_RCC_OscConfig+0x24>
 8001716:	2700      	movs	r7, #0
 8001718:	e7df      	b.n	80016da <HAL_RCC_OscConfig+0x1be>
 800171a:	682b      	ldr	r3, [r5, #0]
 800171c:	f443 7380 	orr.w	r3, r3, #256	@ 0x100
 8001720:	602b      	str	r3, [r5, #0]
 8001722:	f7ff fc5d 	bl	8000fe0 <HAL_GetTick>
 8001726:	4606      	mov	r6, r0
 8001728:	682b      	ldr	r3, [r5, #0]
 800172a:	05d9      	lsls	r1, r3, #23
 800172c:	d4d9      	bmi.n	80016e2 <HAL_RCC_OscConfig+0x1c6>
 800172e:	f7ff fc57 	bl	8000fe0 <HAL_GetTick>
 8001732:	1b80      	subs	r0, r0, r6
 8001734:	2802      	cmp	r0, #2
 8001736:	d9f7      	bls.n	8001728 <HAL_RCC_OscConfig+0x20c>
 8001738:	e734      	b.n	80015a4 <HAL_RCC_OscConfig+0x88>
 800173a:	2b05      	cmp	r3, #5
 800173c:	d104      	bne.n	8001748 <HAL_RCC_OscConfig+0x22c>
 800173e:	6f2b      	ldr	r3, [r5, #112]	@ 0x70
 8001740:	f043 0304 	orr.w	r3, r3, #4
 8001744:	672b      	str	r3, [r5, #112]	@ 0x70
 8001746:	e7d0      	b.n	80016ea <HAL_RCC_OscConfig+0x1ce>
 8001748:	6f2a      	ldr	r2, [r5, #112]	@ 0x70
 800174a:	f022 0201 	bic.w	r2, r2, #1
 800174e:	672a      	str	r2, [r5, #112]	@ 0x70
 8001750:	6f2a      	ldr	r2, [r5, #112]	@ 0x70
 8001752:	f022 0204 	bic.w	r2, r2, #4
 8001756:	672a      	str	r2, [r5, #112]	@ 0x70
 8001758:	2b00      	cmp	r3, #0
 800175a:	d1ca      	bne.n	80016f2 <HAL_RCC_OscConfig+0x1d6>
 800175c:	f7ff fc40 	bl	8000fe0 <HAL_GetTick>
 8001760:	f241 3888 	movw	r8, #5000	@ 0x1388
 8001764:	4606      	mov	r6, r0
 8001766:	6f2b      	ldr	r3, [r5, #112]	@ 0x70
 8001768:	079b      	lsls	r3, r3, #30
 800176a:	d5cb      	bpl.n	8001704 <HAL_RCC_OscConfig+0x1e8>
 800176c:	f7ff fc38 	bl	8000fe0 <HAL_GetTick>
 8001770:	1b80      	subs	r0, r0, r6
 8001772:	4540      	cmp	r0, r8
 8001774:	d9f7      	bls.n	8001766 <HAL_RCC_OscConfig+0x24a>
 8001776:	e715      	b.n	80015a4 <HAL_RCC_OscConfig+0x88>
 8001778:	f7ff fc32 	bl	8000fe0 <HAL_GetTick>
 800177c:	1b40      	subs	r0, r0, r5
 800177e:	4540      	cmp	r0, r8
 8001780:	d9bd      	bls.n	80016fe <HAL_RCC_OscConfig+0x1e2>
 8001782:	e70f      	b.n	80015a4 <HAL_RCC_OscConfig+0x88>
 8001784:	40023800 	.word	0x40023800
 8001788:	42470000 	.word	0x42470000
 800178c:	40007000 	.word	0x40007000
 8001790:	4d37      	ldr	r5, [pc, #220]	@ (8001870 <HAL_RCC_OscConfig+0x354>)
 8001792:	68aa      	ldr	r2, [r5, #8]
 8001794:	f002 020c 	and.w	r2, r2, #12
 8001798:	2a08      	cmp	r2, #8
 800179a:	d03e      	beq.n	800181a <HAL_RCC_OscConfig+0x2fe>
 800179c:	2b02      	cmp	r3, #2
 800179e:	4b35      	ldr	r3, [pc, #212]	@ (8001874 <HAL_RCC_OscConfig+0x358>)
 80017a0:	f04f 0200 	mov.w	r2, #0
 80017a4:	661a      	str	r2, [r3, #96]	@ 0x60
 80017a6:	d12b      	bne.n	8001800 <HAL_RCC_OscConfig+0x2e4>
 80017a8:	f7ff fc1a 	bl	8000fe0 <HAL_GetTick>
 80017ac:	4606      	mov	r6, r0
 80017ae:	682b      	ldr	r3, [r5, #0]
 80017b0:	0199      	lsls	r1, r3, #6
 80017b2:	d41f      	bmi.n	80017f4 <HAL_RCC_OscConfig+0x2d8>
 80017b4:	e9d4 3207 	ldrd	r3, r2, [r4, #28]
 80017b8:	4313      	orrs	r3, r2
 80017ba:	6a62      	ldr	r2, [r4, #36]	@ 0x24
 80017bc:	ea43 1382 	orr.w	r3, r3, r2, lsl #6
 80017c0:	6ae2      	ldr	r2, [r4, #44]	@ 0x2c
 80017c2:	ea43 6302 	orr.w	r3, r3, r2, lsl #24
 80017c6:	6aa2      	ldr	r2, [r4, #40]	@ 0x28
 80017c8:	0852      	lsrs	r2, r2, #1
 80017ca:	3a01      	subs	r2, #1
 80017cc:	ea43 4302 	orr.w	r3, r3, r2, lsl #16
 80017d0:	606b      	str	r3, [r5, #4]
 80017d2:	4b28      	ldr	r3, [pc, #160]	@ (8001874 <HAL_RCC_OscConfig+0x358>)
 80017d4:	4d26      	ldr	r5, [pc, #152]	@ (8001870 <HAL_RCC_OscConfig+0x354>)
 80017d6:	2201      	movs	r2, #1
 80017d8:	661a      	str	r2, [r3, #96]	@ 0x60
 80017da:	f7ff fc01 	bl	8000fe0 <HAL_GetTick>
 80017de:	4604      	mov	r4, r0
 80017e0:	682b      	ldr	r3, [r5, #0]
 80017e2:	019a      	lsls	r2, r3, #6
 80017e4:	f53f aeb0 	bmi.w	8001548 <HAL_RCC_OscConfig+0x2c>
 80017e8:	f7ff fbfa 	bl	8000fe0 <HAL_GetTick>
 80017ec:	1b00      	subs	r0, r0, r4
 80017ee:	2802      	cmp	r0, #2
 80017f0:	d9f6      	bls.n	80017e0 <HAL_RCC_OscConfig+0x2c4>
 80017f2:	e6d7      	b.n	80015a4 <HAL_RCC_OscConfig+0x88>
 80017f4:	f7ff fbf4 	bl	8000fe0 <HAL_GetTick>
 80017f8:	1b80      	subs	r0, r0, r6
 80017fa:	2802      	cmp	r0, #2
 80017fc:	d9d7      	bls.n	80017ae <HAL_RCC_OscConfig+0x292>
 80017fe:	e6d1      	b.n	80015a4 <HAL_RCC_OscConfig+0x88>
 8001800:	f7ff fbee 	bl	8000fe0 <HAL_GetTick>
 8001804:	4604      	mov	r4, r0
 8001806:	682b      	ldr	r3, [r5, #0]
 8001808:	019b      	lsls	r3, r3, #6
 800180a:	f57f ae9d 	bpl.w	8001548 <HAL_RCC_OscConfig+0x2c>
 800180e:	f7ff fbe7 	bl	8000fe0 <HAL_GetTick>
 8001812:	1b00      	subs	r0, r0, r4
 8001814:	2802      	cmp	r0, #2
 8001816:	d9f6      	bls.n	8001806 <HAL_RCC_OscConfig+0x2ea>
 8001818:	e6c4      	b.n	80015a4 <HAL_RCC_OscConfig+0x88>
 800181a:	2b01      	cmp	r3, #1
 800181c:	f43f aeab 	beq.w	8001576 <HAL_RCC_OscConfig+0x5a>
 8001820:	686b      	ldr	r3, [r5, #4]
 8001822:	69e2      	ldr	r2, [r4, #28]
 8001824:	f403 0180 	and.w	r1, r3, #4194304	@ 0x400000
 8001828:	4291      	cmp	r1, r2
 800182a:	f47f aea4 	bne.w	8001576 <HAL_RCC_OscConfig+0x5a>
 800182e:	6a21      	ldr	r1, [r4, #32]
 8001830:	f003 023f 	and.w	r2, r3, #63	@ 0x3f
 8001834:	428a      	cmp	r2, r1
 8001836:	f47f ae9e 	bne.w	8001576 <HAL_RCC_OscConfig+0x5a>
 800183a:	6a61      	ldr	r1, [r4, #36]	@ 0x24
 800183c:	f647 72c0 	movw	r2, #32704	@ 0x7fc0
 8001840:	401a      	ands	r2, r3
 8001842:	ebb2 1f81 	cmp.w	r2, r1, lsl #6
 8001846:	f47f ae96 	bne.w	8001576 <HAL_RCC_OscConfig+0x5a>
 800184a:	6aa2      	ldr	r2, [r4, #40]	@ 0x28
 800184c:	0852      	lsrs	r2, r2, #1
 800184e:	f403 3140 	and.w	r1, r3, #196608	@ 0x30000
 8001852:	3a01      	subs	r2, #1
 8001854:	ebb1 4f02 	cmp.w	r1, r2, lsl #16
 8001858:	f47f ae8d 	bne.w	8001576 <HAL_RCC_OscConfig+0x5a>
 800185c:	6ae2      	ldr	r2, [r4, #44]	@ 0x2c
 800185e:	f003 6370 	and.w	r3, r3, #251658240	@ 0xf000000
 8001862:	ebb3 6f02 	cmp.w	r3, r2, lsl #24
 8001866:	bf14      	ite	ne
 8001868:	2001      	movne	r0, #1
 800186a:	2000      	moveq	r0, #0
 800186c:	e69b      	b.n	80015a6 <HAL_RCC_OscConfig+0x8a>
 800186e:	bf00      	nop
 8001870:	40023800 	.word	0x40023800
 8001874:	42470000 	.word	0x42470000

08001878 <HAL_RCC_GetSysClockFreq>:
 8001878:	4913      	ldr	r1, [pc, #76]	@ (80018c8 <HAL_RCC_GetSysClockFreq+0x50>)
 800187a:	b508      	push	{r3, lr}
 800187c:	688b      	ldr	r3, [r1, #8]
 800187e:	f003 030c 	and.w	r3, r3, #12
 8001882:	2b04      	cmp	r3, #4
 8001884:	d01c      	beq.n	80018c0 <HAL_RCC_GetSysClockFreq+0x48>
 8001886:	2b08      	cmp	r3, #8
 8001888:	d11c      	bne.n	80018c4 <HAL_RCC_GetSysClockFreq+0x4c>
 800188a:	684a      	ldr	r2, [r1, #4]
 800188c:	684b      	ldr	r3, [r1, #4]
 800188e:	6849      	ldr	r1, [r1, #4]
 8001890:	f413 0380 	ands.w	r3, r3, #4194304	@ 0x400000
 8001894:	bf14      	ite	ne
 8001896:	480d      	ldrne	r0, [pc, #52]	@ (80018cc <HAL_RCC_GetSysClockFreq+0x54>)
 8001898:	480d      	ldreq	r0, [pc, #52]	@ (80018d0 <HAL_RCC_GetSysClockFreq+0x58>)
 800189a:	f3c1 1188 	ubfx	r1, r1, #6, #9
 800189e:	bf18      	it	ne
 80018a0:	2300      	movne	r3, #0
 80018a2:	f002 023f 	and.w	r2, r2, #63	@ 0x3f
 80018a6:	fba1 0100 	umull	r0, r1, r1, r0
 80018aa:	f7fe fc8d 	bl	80001c8 <__aeabi_uldivmod>
 80018ae:	4b06      	ldr	r3, [pc, #24]	@ (80018c8 <HAL_RCC_GetSysClockFreq+0x50>)
 80018b0:	685b      	ldr	r3, [r3, #4]
 80018b2:	f3c3 4301 	ubfx	r3, r3, #16, #2
 80018b6:	3301      	adds	r3, #1
 80018b8:	005b      	lsls	r3, r3, #1
 80018ba:	fbb0 f0f3 	udiv	r0, r0, r3
 80018be:	bd08      	pop	{r3, pc}
 80018c0:	4802      	ldr	r0, [pc, #8]	@ (80018cc <HAL_RCC_GetSysClockFreq+0x54>)
 80018c2:	e7fc      	b.n	80018be <HAL_RCC_GetSysClockFreq+0x46>
 80018c4:	4802      	ldr	r0, [pc, #8]	@ (80018d0 <HAL_RCC_GetSysClockFreq+0x58>)
 80018c6:	e7fa      	b.n	80018be <HAL_RCC_GetSysClockFreq+0x46>
 80018c8:	40023800 	.word	0x40023800
 80018cc:	007a1200 	.word	0x007a1200
 80018d0:	00f42400 	.word	0x00f42400

080018d4 <HAL_RCC_ClockConfig>:
 80018d4:	e92d 41f0 	stmdb	sp!, {r4, r5, r6, r7, r8, lr}
 80018d8:	460d      	mov	r5, r1
 80018da:	4604      	mov	r4, r0
 80018dc:	b910      	cbnz	r0, 80018e4 <HAL_RCC_ClockConfig+0x10>
 80018de:	2001      	movs	r0, #1
 80018e0:	e8bd 81f0 	ldmia.w	sp!, {r4, r5, r6, r7, r8, pc}
 80018e4:	4b43      	ldr	r3, [pc, #268]	@ (80019f4 <HAL_RCC_ClockConfig+0x120>)
 80018e6:	681a      	ldr	r2, [r3, #0]
 80018e8:	f002 0207 	and.w	r2, r2, #7
 80018ec:	428a      	cmp	r2, r1
 80018ee:	d328      	bcc.n	8001942 <HAL_RCC_ClockConfig+0x6e>
 80018f0:	6821      	ldr	r1, [r4, #0]
 80018f2:	078f      	lsls	r7, r1, #30
 80018f4:	d42d      	bmi.n	8001952 <HAL_RCC_ClockConfig+0x7e>
 80018f6:	07c8      	lsls	r0, r1, #31
 80018f8:	d440      	bmi.n	800197c <HAL_RCC_ClockConfig+0xa8>
 80018fa:	4b3e      	ldr	r3, [pc, #248]	@ (80019f4 <HAL_RCC_ClockConfig+0x120>)
 80018fc:	681a      	ldr	r2, [r3, #0]
 80018fe:	f002 0207 	and.w	r2, r2, #7
 8001902:	42aa      	cmp	r2, r5
 8001904:	d865      	bhi.n	80019d2 <HAL_RCC_ClockConfig+0xfe>
 8001906:	6822      	ldr	r2, [r4, #0]
 8001908:	0751      	lsls	r1, r2, #29
 800190a:	d46b      	bmi.n	80019e4 <HAL_RCC_ClockConfig+0x110>
 800190c:	0713      	lsls	r3, r2, #28
 800190e:	d507      	bpl.n	8001920 <HAL_RCC_ClockConfig+0x4c>
 8001910:	4a39      	ldr	r2, [pc, #228]	@ (80019f8 <HAL_RCC_ClockConfig+0x124>)
 8001912:	6921      	ldr	r1, [r4, #16]
 8001914:	6893      	ldr	r3, [r2, #8]
 8001916:	f423 4360 	bic.w	r3, r3, #57344	@ 0xe000
 800191a:	ea43 03c1 	orr.w	r3, r3, r1, lsl #3
 800191e:	6093      	str	r3, [r2, #8]
 8001920:	f7ff ffaa 	bl	8001878 <HAL_RCC_GetSysClockFreq>
 8001924:	4b34      	ldr	r3, [pc, #208]	@ (80019f8 <HAL_RCC_ClockConfig+0x124>)
 8001926:	4a35      	ldr	r2, [pc, #212]	@ (80019fc <HAL_RCC_ClockConfig+0x128>)
 8001928:	689b      	ldr	r3, [r3, #8]
 800192a:	f3c3 1303 	ubfx	r3, r3, #4, #4
 800192e:	5cd3      	ldrb	r3, [r2, r3]
 8001930:	40d8      	lsrs	r0, r3
 8001932:	4b33      	ldr	r3, [pc, #204]	@ (8001a00 <HAL_RCC_ClockConfig+0x12c>)
 8001934:	6018      	str	r0, [r3, #0]
 8001936:	4b33      	ldr	r3, [pc, #204]	@ (8001a04 <HAL_RCC_ClockConfig+0x130>)
 8001938:	6818      	ldr	r0, [r3, #0]
 800193a:	f7ff fb07 	bl	8000f4c <HAL_InitTick>
 800193e:	2000      	movs	r0, #0
 8001940:	e7ce      	b.n	80018e0 <HAL_RCC_ClockConfig+0xc>
 8001942:	b2ca      	uxtb	r2, r1
 8001944:	701a      	strb	r2, [r3, #0]
 8001946:	681b      	ldr	r3, [r3, #0]
 8001948:	f003 0307 	and.w	r3, r3, #7
 800194c:	428b      	cmp	r3, r1
 800194e:	d1c6      	bne.n	80018de <HAL_RCC_ClockConfig+0xa>
 8001950:	e7ce      	b.n	80018f0 <HAL_RCC_ClockConfig+0x1c>
 8001952:	4b29      	ldr	r3, [pc, #164]	@ (80019f8 <HAL_RCC_ClockConfig+0x124>)
 8001954:	f011 0f04 	tst.w	r1, #4
 8001958:	bf1e      	ittt	ne
 800195a:	689a      	ldrne	r2, [r3, #8]
 800195c:	f442 52e0 	orrne.w	r2, r2, #7168	@ 0x1c00
 8001960:	609a      	strne	r2, [r3, #8]
 8001962:	070e      	lsls	r6, r1, #28
 8001964:	bf42      	ittt	mi
 8001966:	689a      	ldrmi	r2, [r3, #8]
 8001968:	f442 4260 	orrmi.w	r2, r2, #57344	@ 0xe000
 800196c:	609a      	strmi	r2, [r3, #8]
 800196e:	689a      	ldr	r2, [r3, #8]
 8001970:	68a0      	ldr	r0, [r4, #8]
 8001972:	f022 02f0 	bic.w	r2, r2, #240	@ 0xf0
 8001976:	4302      	orrs	r2, r0
 8001978:	609a      	str	r2, [r3, #8]
 800197a:	e7bc      	b.n	80018f6 <HAL_RCC_ClockConfig+0x22>
 800197c:	6862      	ldr	r2, [r4, #4]
 800197e:	4b1e      	ldr	r3, [pc, #120]	@ (80019f8 <HAL_RCC_ClockConfig+0x124>)
 8001980:	2a01      	cmp	r2, #1
 8001982:	d11c      	bne.n	80019be <HAL_RCC_ClockConfig+0xea>
 8001984:	681b      	ldr	r3, [r3, #0]
 8001986:	f413 3f00 	tst.w	r3, #131072	@ 0x20000
 800198a:	d0a8      	beq.n	80018de <HAL_RCC_ClockConfig+0xa>
 800198c:	4e1a      	ldr	r6, [pc, #104]	@ (80019f8 <HAL_RCC_ClockConfig+0x124>)
 800198e:	68b3      	ldr	r3, [r6, #8]
 8001990:	f023 0303 	bic.w	r3, r3, #3
 8001994:	4313      	orrs	r3, r2
 8001996:	60b3      	str	r3, [r6, #8]
 8001998:	f7ff fb22 	bl	8000fe0 <HAL_GetTick>
 800199c:	f241 3888 	movw	r8, #5000	@ 0x1388
 80019a0:	4607      	mov	r7, r0
 80019a2:	68b3      	ldr	r3, [r6, #8]
 80019a4:	6862      	ldr	r2, [r4, #4]
 80019a6:	f003 030c 	and.w	r3, r3, #12
 80019aa:	ebb3 0f82 	cmp.w	r3, r2, lsl #2
 80019ae:	d0a4      	beq.n	80018fa <HAL_RCC_ClockConfig+0x26>
 80019b0:	f7ff fb16 	bl	8000fe0 <HAL_GetTick>
 80019b4:	1bc0      	subs	r0, r0, r7
 80019b6:	4540      	cmp	r0, r8
 80019b8:	d9f3      	bls.n	80019a2 <HAL_RCC_ClockConfig+0xce>
 80019ba:	2003      	movs	r0, #3
 80019bc:	e790      	b.n	80018e0 <HAL_RCC_ClockConfig+0xc>
 80019be:	1e91      	subs	r1, r2, #2
 80019c0:	2901      	cmp	r1, #1
 80019c2:	681b      	ldr	r3, [r3, #0]
 80019c4:	d802      	bhi.n	80019cc <HAL_RCC_ClockConfig+0xf8>
 80019c6:	f013 7f00 	tst.w	r3, #33554432	@ 0x2000000
 80019ca:	e7de      	b.n	800198a <HAL_RCC_ClockConfig+0xb6>
 80019cc:	f013 0f02 	tst.w	r3, #2
 80019d0:	e7db      	b.n	800198a <HAL_RCC_ClockConfig+0xb6>
 80019d2:	b2ea      	uxtb	r2, r5
 80019d4:	701a      	strb	r2, [r3, #0]
 80019d6:	681b      	ldr	r3, [r3, #0]
 80019d8:	f003 0307 	and.w	r3, r3, #7
 80019dc:	42ab      	cmp	r3, r5
 80019de:	f47f af7e 	bne.w	80018de <HAL_RCC_ClockConfig+0xa>
 80019e2:	e790      	b.n	8001906 <HAL_RCC_ClockConfig+0x32>
 80019e4:	4904      	ldr	r1, [pc, #16]	@ (80019f8 <HAL_RCC_ClockConfig+0x124>)
 80019e6:	68e0      	ldr	r0, [r4, #12]
 80019e8:	688b      	ldr	r3, [r1, #8]
 80019ea:	f423 53e0 	bic.w	r3, r3, #7168	@ 0x1c00
 80019ee:	4303      	orrs	r3, r0
 80019f0:	608b      	str	r3, [r1, #8]
 80019f2:	e78b      	b.n	800190c <HAL_RCC_ClockConfig+0x38>
 80019f4:	40023c00 	.word	0x40023c00
 80019f8:	40023800 	.word	0x40023800
 80019fc:	080052eb 	.word	0x080052eb
 8001a00:	20000000 	.word	0x20000000
 8001a04:	20000008 	.word	0x20000008

08001a08 <HAL_RCC_GetPCLK1Freq>:
 8001a08:	4b04      	ldr	r3, [pc, #16]	@ (8001a1c <HAL_RCC_GetPCLK1Freq+0x14>)
 8001a0a:	4a05      	ldr	r2, [pc, #20]	@ (8001a20 <HAL_RCC_GetPCLK1Freq+0x18>)
 8001a0c:	689b      	ldr	r3, [r3, #8]
 8001a0e:	f3c3 2382 	ubfx	r3, r3, #10, #3
 8001a12:	5cd3      	ldrb	r3, [r2, r3]
 8001a14:	4a03      	ldr	r2, [pc, #12]	@ (8001a24 <HAL_RCC_GetPCLK1Freq+0x1c>)
 8001a16:	6810      	ldr	r0, [r2, #0]
 8001a18:	40d8      	lsrs	r0, r3
 8001a1a:	4770      	bx	lr
 8001a1c:	40023800 	.word	0x40023800
 8001a20:	080052e3 	.word	0x080052e3
 8001a24:	20000000 	.word	0x20000000

08001a28 <HAL_RCC_GetPCLK2Freq>:
 8001a28:	4b04      	ldr	r3, [pc, #16]	@ (8001a3c <HAL_RCC_GetPCLK2Freq+0x14>)
 8001a2a:	4a05      	ldr	r2, [pc, #20]	@ (8001a40 <HAL_RCC_GetPCLK2Freq+0x18>)
 8001a2c:	689b      	ldr	r3, [r3, #8]
 8001a2e:	f3c3 3342 	ubfx	r3, r3, #13, #3
 8001a32:	5cd3      	ldrb	r3, [r2, r3]
 8001a34:	4a03      	ldr	r2, [pc, #12]	@ (8001a44 <HAL_RCC_GetPCLK2Freq+0x1c>)
 8001a36:	6810      	ldr	r0, [r2, #0]
 8001a38:	40d8      	lsrs	r0, r3
 8001a3a:	4770      	bx	lr
 8001a3c:	40023800 	.word	0x40023800
 8001a40:	080052e3 	.word	0x080052e3
 8001a44:	20000000 	.word	0x20000000

08001a48 <HAL_RCCEx_PeriphCLKConfig>:
 8001a48:	6803      	ldr	r3, [r0, #0]
 8001a4a:	f013 0f05 	tst.w	r3, #5
 8001a4e:	b5f7      	push	{r0, r1, r2, r4, r5, r6, r7, lr}
 8001a50:	4604      	mov	r4, r0
 8001a52:	d105      	bne.n	8001a60 <HAL_RCCEx_PeriphCLKConfig+0x18>
 8001a54:	6823      	ldr	r3, [r4, #0]
 8001a56:	079b      	lsls	r3, r3, #30
 8001a58:	d42a      	bmi.n	8001ab0 <HAL_RCCEx_PeriphCLKConfig+0x68>
 8001a5a:	2000      	movs	r0, #0
 8001a5c:	b003      	add	sp, #12
 8001a5e:	bdf0      	pop	{r4, r5, r6, r7, pc}
 8001a60:	4b42      	ldr	r3, [pc, #264]	@ (8001b6c <HAL_RCCEx_PeriphCLKConfig+0x124>)
 8001a62:	4e43      	ldr	r6, [pc, #268]	@ (8001b70 <HAL_RCCEx_PeriphCLKConfig+0x128>)
 8001a64:	2200      	movs	r2, #0
 8001a66:	669a      	str	r2, [r3, #104]	@ 0x68
 8001a68:	f7ff faba 	bl	8000fe0 <HAL_GetTick>
 8001a6c:	4605      	mov	r5, r0
 8001a6e:	6833      	ldr	r3, [r6, #0]
 8001a70:	011f      	lsls	r7, r3, #4
 8001a72:	d416      	bmi.n	8001aa2 <HAL_RCCEx_PeriphCLKConfig+0x5a>
 8001a74:	e9d4 2301 	ldrd	r2, r3, [r4, #4]
 8001a78:	071b      	lsls	r3, r3, #28
 8001a7a:	ea43 1382 	orr.w	r3, r3, r2, lsl #6
 8001a7e:	f8c6 3084 	str.w	r3, [r6, #132]	@ 0x84
 8001a82:	4b3a      	ldr	r3, [pc, #232]	@ (8001b6c <HAL_RCCEx_PeriphCLKConfig+0x124>)
 8001a84:	4e3a      	ldr	r6, [pc, #232]	@ (8001b70 <HAL_RCCEx_PeriphCLKConfig+0x128>)
 8001a86:	2201      	movs	r2, #1
 8001a88:	669a      	str	r2, [r3, #104]	@ 0x68
 8001a8a:	f7ff faa9 	bl	8000fe0 <HAL_GetTick>
 8001a8e:	4605      	mov	r5, r0
 8001a90:	6833      	ldr	r3, [r6, #0]
 8001a92:	0118      	lsls	r0, r3, #4
 8001a94:	d4de      	bmi.n	8001a54 <HAL_RCCEx_PeriphCLKConfig+0xc>
 8001a96:	f7ff faa3 	bl	8000fe0 <HAL_GetTick>
 8001a9a:	1b40      	subs	r0, r0, r5
 8001a9c:	2802      	cmp	r0, #2
 8001a9e:	d9f7      	bls.n	8001a90 <HAL_RCCEx_PeriphCLKConfig+0x48>
 8001aa0:	e004      	b.n	8001aac <HAL_RCCEx_PeriphCLKConfig+0x64>
 8001aa2:	f7ff fa9d 	bl	8000fe0 <HAL_GetTick>
 8001aa6:	1b40      	subs	r0, r0, r5
 8001aa8:	2802      	cmp	r0, #2
 8001aaa:	d9e0      	bls.n	8001a6e <HAL_RCCEx_PeriphCLKConfig+0x26>
 8001aac:	2003      	movs	r0, #3
 8001aae:	e7d5      	b.n	8001a5c <HAL_RCCEx_PeriphCLKConfig+0x14>
 8001ab0:	2300      	movs	r3, #0
 8001ab2:	9301      	str	r3, [sp, #4]
 8001ab4:	4b2e      	ldr	r3, [pc, #184]	@ (8001b70 <HAL_RCCEx_PeriphCLKConfig+0x128>)
 8001ab6:	4d2f      	ldr	r5, [pc, #188]	@ (8001b74 <HAL_RCCEx_PeriphCLKConfig+0x12c>)
 8001ab8:	6c1a      	ldr	r2, [r3, #64]	@ 0x40
 8001aba:	f042 5280 	orr.w	r2, r2, #268435456	@ 0x10000000
 8001abe:	641a      	str	r2, [r3, #64]	@ 0x40
 8001ac0:	6c1b      	ldr	r3, [r3, #64]	@ 0x40
 8001ac2:	f003 5380 	and.w	r3, r3, #268435456	@ 0x10000000
 8001ac6:	9301      	str	r3, [sp, #4]
 8001ac8:	9b01      	ldr	r3, [sp, #4]
 8001aca:	682b      	ldr	r3, [r5, #0]
 8001acc:	f443 7380 	orr.w	r3, r3, #256	@ 0x100
 8001ad0:	602b      	str	r3, [r5, #0]
 8001ad2:	f7ff fa85 	bl	8000fe0 <HAL_GetTick>
 8001ad6:	4606      	mov	r6, r0
 8001ad8:	682b      	ldr	r3, [r5, #0]
 8001ada:	05d9      	lsls	r1, r3, #23
 8001adc:	d51b      	bpl.n	8001b16 <HAL_RCCEx_PeriphCLKConfig+0xce>
 8001ade:	4d24      	ldr	r5, [pc, #144]	@ (8001b70 <HAL_RCCEx_PeriphCLKConfig+0x128>)
 8001ae0:	68e2      	ldr	r2, [r4, #12]
 8001ae2:	6f2b      	ldr	r3, [r5, #112]	@ 0x70
 8001ae4:	f413 7340 	ands.w	r3, r3, #768	@ 0x300
 8001ae8:	d11b      	bne.n	8001b22 <HAL_RCCEx_PeriphCLKConfig+0xda>
 8001aea:	68e3      	ldr	r3, [r4, #12]
 8001aec:	f403 7240 	and.w	r2, r3, #768	@ 0x300
 8001af0:	f5b2 7f40 	cmp.w	r2, #768	@ 0x300
 8001af4:	4a1e      	ldr	r2, [pc, #120]	@ (8001b70 <HAL_RCCEx_PeriphCLKConfig+0x128>)
 8001af6:	d134      	bne.n	8001b62 <HAL_RCCEx_PeriphCLKConfig+0x11a>
 8001af8:	6891      	ldr	r1, [r2, #8]
 8001afa:	f023 4070 	bic.w	r0, r3, #4026531840	@ 0xf0000000
 8001afe:	f421 11f8 	bic.w	r1, r1, #2031616	@ 0x1f0000
 8001b02:	f420 7040 	bic.w	r0, r0, #768	@ 0x300
 8001b06:	4301      	orrs	r1, r0
 8001b08:	6091      	str	r1, [r2, #8]
 8001b0a:	6f11      	ldr	r1, [r2, #112]	@ 0x70
 8001b0c:	f3c3 030b 	ubfx	r3, r3, #0, #12
 8001b10:	430b      	orrs	r3, r1
 8001b12:	6713      	str	r3, [r2, #112]	@ 0x70
 8001b14:	e7a1      	b.n	8001a5a <HAL_RCCEx_PeriphCLKConfig+0x12>
 8001b16:	f7ff fa63 	bl	8000fe0 <HAL_GetTick>
 8001b1a:	1b80      	subs	r0, r0, r6
 8001b1c:	2802      	cmp	r0, #2
 8001b1e:	d9db      	bls.n	8001ad8 <HAL_RCCEx_PeriphCLKConfig+0x90>
 8001b20:	e7c4      	b.n	8001aac <HAL_RCCEx_PeriphCLKConfig+0x64>
 8001b22:	f402 7240 	and.w	r2, r2, #768	@ 0x300
 8001b26:	4293      	cmp	r3, r2
 8001b28:	d0df      	beq.n	8001aea <HAL_RCCEx_PeriphCLKConfig+0xa2>
 8001b2a:	6f2b      	ldr	r3, [r5, #112]	@ 0x70
 8001b2c:	4a0f      	ldr	r2, [pc, #60]	@ (8001b6c <HAL_RCCEx_PeriphCLKConfig+0x124>)
 8001b2e:	2101      	movs	r1, #1
 8001b30:	f8c2 1e40 	str.w	r1, [r2, #3648]	@ 0xe40
 8001b34:	f423 7340 	bic.w	r3, r3, #768	@ 0x300
 8001b38:	2100      	movs	r1, #0
 8001b3a:	f8c2 1e40 	str.w	r1, [r2, #3648]	@ 0xe40
 8001b3e:	672b      	str	r3, [r5, #112]	@ 0x70
 8001b40:	6f2b      	ldr	r3, [r5, #112]	@ 0x70
 8001b42:	07da      	lsls	r2, r3, #31
 8001b44:	d5d1      	bpl.n	8001aea <HAL_RCCEx_PeriphCLKConfig+0xa2>
 8001b46:	f7ff fa4b 	bl	8000fe0 <HAL_GetTick>
 8001b4a:	f241 3788 	movw	r7, #5000	@ 0x1388
 8001b4e:	4606      	mov	r6, r0
 8001b50:	6f2b      	ldr	r3, [r5, #112]	@ 0x70
 8001b52:	079b      	lsls	r3, r3, #30
 8001b54:	d4c9      	bmi.n	8001aea <HAL_RCCEx_PeriphCLKConfig+0xa2>
 8001b56:	f7ff fa43 	bl	8000fe0 <HAL_GetTick>
 8001b5a:	1b80      	subs	r0, r0, r6
 8001b5c:	42b8      	cmp	r0, r7
 8001b5e:	d9f7      	bls.n	8001b50 <HAL_RCCEx_PeriphCLKConfig+0x108>
 8001b60:	e7a4      	b.n	8001aac <HAL_RCCEx_PeriphCLKConfig+0x64>
 8001b62:	6891      	ldr	r1, [r2, #8]
 8001b64:	f421 11f8 	bic.w	r1, r1, #2031616	@ 0x1f0000
 8001b68:	e7ce      	b.n	8001b08 <HAL_RCCEx_PeriphCLKConfig+0xc0>
 8001b6a:	bf00      	nop
 8001b6c:	42470000 	.word	0x42470000
 8001b70:	40023800 	.word	0x40023800
 8001b74:	40007000 	.word	0x40007000

08001b78 <HAL_RCC_DeInit>:
 8001b78:	b570      	push	{r4, r5, r6, lr}
 8001b7a:	4c41      	ldr	r4, [pc, #260]	@ (8001c80 <HAL_RCC_DeInit+0x108>)
 8001b7c:	f7ff fa30 	bl	8000fe0 <HAL_GetTick>
 8001b80:	6823      	ldr	r3, [r4, #0]
 8001b82:	f043 0301 	orr.w	r3, r3, #1
 8001b86:	4605      	mov	r5, r0
 8001b88:	6023      	str	r3, [r4, #0]
 8001b8a:	6823      	ldr	r3, [r4, #0]
 8001b8c:	0798      	lsls	r0, r3, #30
 8001b8e:	d558      	bpl.n	8001c42 <HAL_RCC_DeInit+0xca>
 8001b90:	6823      	ldr	r3, [r4, #0]
 8001b92:	f043 0380 	orr.w	r3, r3, #128	@ 0x80
 8001b96:	6023      	str	r3, [r4, #0]
 8001b98:	f7ff fa22 	bl	8000fe0 <HAL_GetTick>
 8001b9c:	2300      	movs	r3, #0
 8001b9e:	60a3      	str	r3, [r4, #8]
 8001ba0:	4c37      	ldr	r4, [pc, #220]	@ (8001c80 <HAL_RCC_DeInit+0x108>)
 8001ba2:	4605      	mov	r5, r0
 8001ba4:	f241 3688 	movw	r6, #5000	@ 0x1388
 8001ba8:	68a3      	ldr	r3, [r4, #8]
 8001baa:	f013 0f0c 	tst.w	r3, #12
 8001bae:	d14f      	bne.n	8001c50 <HAL_RCC_DeInit+0xd8>
 8001bb0:	f7ff fa16 	bl	8000fe0 <HAL_GetTick>
 8001bb4:	6823      	ldr	r3, [r4, #0]
 8001bb6:	f423 2350 	bic.w	r3, r3, #851968	@ 0xd0000
 8001bba:	6023      	str	r3, [r4, #0]
 8001bbc:	4c30      	ldr	r4, [pc, #192]	@ (8001c80 <HAL_RCC_DeInit+0x108>)
 8001bbe:	4605      	mov	r5, r0
 8001bc0:	6823      	ldr	r3, [r4, #0]
 8001bc2:	0399      	lsls	r1, r3, #14
 8001bc4:	d44a      	bmi.n	8001c5c <HAL_RCC_DeInit+0xe4>
 8001bc6:	f7ff fa0b 	bl	8000fe0 <HAL_GetTick>
 8001bca:	6823      	ldr	r3, [r4, #0]
 8001bcc:	f023 7380 	bic.w	r3, r3, #16777216	@ 0x1000000
 8001bd0:	6023      	str	r3, [r4, #0]
 8001bd2:	4c2b      	ldr	r4, [pc, #172]	@ (8001c80 <HAL_RCC_DeInit+0x108>)
 8001bd4:	4605      	mov	r5, r0
 8001bd6:	6823      	ldr	r3, [r4, #0]
 8001bd8:	019a      	lsls	r2, r3, #6
 8001bda:	d445      	bmi.n	8001c68 <HAL_RCC_DeInit+0xf0>
 8001bdc:	f7ff fa00 	bl	8000fe0 <HAL_GetTick>
 8001be0:	6823      	ldr	r3, [r4, #0]
 8001be2:	f023 6380 	bic.w	r3, r3, #67108864	@ 0x4000000
 8001be6:	6023      	str	r3, [r4, #0]
 8001be8:	4c25      	ldr	r4, [pc, #148]	@ (8001c80 <HAL_RCC_DeInit+0x108>)
 8001bea:	4605      	mov	r5, r0
 8001bec:	6823      	ldr	r3, [r4, #0]
 8001bee:	011b      	lsls	r3, r3, #4
 8001bf0:	d440      	bmi.n	8001c74 <HAL_RCC_DeInit+0xfc>
 8001bf2:	4b24      	ldr	r3, [pc, #144]	@ (8001c84 <HAL_RCC_DeInit+0x10c>)
 8001bf4:	6063      	str	r3, [r4, #4]
 8001bf6:	4b24      	ldr	r3, [pc, #144]	@ (8001c88 <HAL_RCC_DeInit+0x110>)
 8001bf8:	f8c4 3084 	str.w	r3, [r4, #132]	@ 0x84
 8001bfc:	68e3      	ldr	r3, [r4, #12]
 8001bfe:	4a23      	ldr	r2, [pc, #140]	@ (8001c8c <HAL_RCC_DeInit+0x114>)
 8001c00:	f423 53f8 	bic.w	r3, r3, #7936	@ 0x1f00
 8001c04:	60e3      	str	r3, [r4, #12]
 8001c06:	68e3      	ldr	r3, [r4, #12]
 8001c08:	f423 5300 	bic.w	r3, r3, #8192	@ 0x2000
 8001c0c:	60e3      	str	r3, [r4, #12]
 8001c0e:	68e3      	ldr	r3, [r4, #12]
 8001c10:	f443 031f 	orr.w	r3, r3, #10420224	@ 0x9f0000
 8001c14:	60e3      	str	r3, [r4, #12]
 8001c16:	68e3      	ldr	r3, [r4, #12]
 8001c18:	f443 1300 	orr.w	r3, r3, #2097152	@ 0x200000
 8001c1c:	60e3      	str	r3, [r4, #12]
 8001c1e:	6f63      	ldr	r3, [r4, #116]	@ 0x74
 8001c20:	f023 0301 	bic.w	r3, r3, #1
 8001c24:	6763      	str	r3, [r4, #116]	@ 0x74
 8001c26:	6f63      	ldr	r3, [r4, #116]	@ 0x74
 8001c28:	f043 7380 	orr.w	r3, r3, #16777216	@ 0x1000000
 8001c2c:	6763      	str	r3, [r4, #116]	@ 0x74
 8001c2e:	4b18      	ldr	r3, [pc, #96]	@ (8001c90 <HAL_RCC_DeInit+0x118>)
 8001c30:	601a      	str	r2, [r3, #0]
 8001c32:	4b18      	ldr	r3, [pc, #96]	@ (8001c94 <HAL_RCC_DeInit+0x11c>)
 8001c34:	6818      	ldr	r0, [r3, #0]
 8001c36:	f7ff f989 	bl	8000f4c <HAL_InitTick>
 8001c3a:	3800      	subs	r0, #0
 8001c3c:	bf18      	it	ne
 8001c3e:	2001      	movne	r0, #1
 8001c40:	e005      	b.n	8001c4e <HAL_RCC_DeInit+0xd6>
 8001c42:	f7ff f9cd 	bl	8000fe0 <HAL_GetTick>
 8001c46:	1b40      	subs	r0, r0, r5
 8001c48:	2802      	cmp	r0, #2
 8001c4a:	d99e      	bls.n	8001b8a <HAL_RCC_DeInit+0x12>
 8001c4c:	2003      	movs	r0, #3
 8001c4e:	bd70      	pop	{r4, r5, r6, pc}
 8001c50:	f7ff f9c6 	bl	8000fe0 <HAL_GetTick>
 8001c54:	1b40      	subs	r0, r0, r5
 8001c56:	42b0      	cmp	r0, r6
 8001c58:	d9a6      	bls.n	8001ba8 <HAL_RCC_DeInit+0x30>
 8001c5a:	e7f7      	b.n	8001c4c <HAL_RCC_DeInit+0xd4>
 8001c5c:	f7ff f9c0 	bl	8000fe0 <HAL_GetTick>
 8001c60:	1b40      	subs	r0, r0, r5
 8001c62:	2864      	cmp	r0, #100	@ 0x64
 8001c64:	d9ac      	bls.n	8001bc0 <HAL_RCC_DeInit+0x48>
 8001c66:	e7f1      	b.n	8001c4c <HAL_RCC_DeInit+0xd4>
 8001c68:	f7ff f9ba 	bl	8000fe0 <HAL_GetTick>
 8001c6c:	1b40      	subs	r0, r0, r5
 8001c6e:	2802      	cmp	r0, #2
 8001c70:	d9b1      	bls.n	8001bd6 <HAL_RCC_DeInit+0x5e>
 8001c72:	e7eb      	b.n	8001c4c <HAL_RCC_DeInit+0xd4>
 8001c74:	f7ff f9b4 	bl	8000fe0 <HAL_GetTick>
 8001c78:	1b40      	subs	r0, r0, r5
 8001c7a:	2802      	cmp	r0, #2
 8001c7c:	d9b6      	bls.n	8001bec <HAL_RCC_DeInit+0x74>
 8001c7e:	e7e5      	b.n	8001c4c <HAL_RCC_DeInit+0xd4>
 8001c80:	40023800 	.word	0x40023800
 8001c84:	04003010 	.word	0x04003010
 8001c88:	20003000 	.word	0x20003000
 8001c8c:	00f42400 	.word	0x00f42400
 8001c90:	20000000 	.word	0x20000000
 8001c94:	20000008 	.word	0x20000008

08001c98 <HAL_RTC_WaitForSynchro>:
 8001c98:	b538      	push	{r3, r4, r5, lr}
 8001c9a:	6803      	ldr	r3, [r0, #0]
 8001c9c:	4a09      	ldr	r2, [pc, #36]	@ (8001cc4 <HAL_RTC_WaitForSynchro+0x2c>)
 8001c9e:	60da      	str	r2, [r3, #12]
 8001ca0:	4604      	mov	r4, r0
 8001ca2:	f7ff f99d 	bl	8000fe0 <HAL_GetTick>
 8001ca6:	4605      	mov	r5, r0
 8001ca8:	6823      	ldr	r3, [r4, #0]
 8001caa:	68db      	ldr	r3, [r3, #12]
 8001cac:	069b      	lsls	r3, r3, #26
 8001cae:	d501      	bpl.n	8001cb4 <HAL_RTC_WaitForSynchro+0x1c>
 8001cb0:	2000      	movs	r0, #0
 8001cb2:	bd38      	pop	{r3, r4, r5, pc}
 8001cb4:	f7ff f994 	bl	8000fe0 <HAL_GetTick>
 8001cb8:	1b40      	subs	r0, r0, r5
 8001cba:	f5b0 7f7a 	cmp.w	r0, #1000	@ 0x3e8
 8001cbe:	d9f3      	bls.n	8001ca8 <HAL_RTC_WaitForSynchro+0x10>
 8001cc0:	2003      	movs	r0, #3
 8001cc2:	e7f6      	b.n	8001cb2 <HAL_RTC_WaitForSynchro+0x1a>
 8001cc4:	00017f5f 	.word	0x00017f5f

08001cc8 <RTC_EnterInitMode>:
 8001cc8:	6803      	ldr	r3, [r0, #0]
 8001cca:	b570      	push	{r4, r5, r6, lr}
 8001ccc:	68dc      	ldr	r4, [r3, #12]
 8001cce:	f014 0440 	ands.w	r4, r4, #64	@ 0x40
 8001cd2:	4605      	mov	r5, r0
 8001cd4:	d117      	bne.n	8001d06 <RTC_EnterInitMode+0x3e>
 8001cd6:	68da      	ldr	r2, [r3, #12]
 8001cd8:	f042 0280 	orr.w	r2, r2, #128	@ 0x80
 8001cdc:	60da      	str	r2, [r3, #12]
 8001cde:	f7ff f97f 	bl	8000fe0 <HAL_GetTick>
 8001ce2:	4606      	mov	r6, r0
 8001ce4:	682b      	ldr	r3, [r5, #0]
 8001ce6:	68db      	ldr	r3, [r3, #12]
 8001ce8:	065b      	lsls	r3, r3, #25
 8001cea:	d400      	bmi.n	8001cee <RTC_EnterInitMode+0x26>
 8001cec:	b10c      	cbz	r4, 8001cf2 <RTC_EnterInitMode+0x2a>
 8001cee:	4620      	mov	r0, r4
 8001cf0:	bd70      	pop	{r4, r5, r6, pc}
 8001cf2:	f7ff f975 	bl	8000fe0 <HAL_GetTick>
 8001cf6:	1b80      	subs	r0, r0, r6
 8001cf8:	f5b0 7f7a 	cmp.w	r0, #1000	@ 0x3e8
 8001cfc:	bf82      	ittt	hi
 8001cfe:	2304      	movhi	r3, #4
 8001d00:	776b      	strbhi	r3, [r5, #29]
 8001d02:	2401      	movhi	r4, #1
 8001d04:	e7ee      	b.n	8001ce4 <RTC_EnterInitMode+0x1c>
 8001d06:	2400      	movs	r4, #0
 8001d08:	e7f1      	b.n	8001cee <RTC_EnterInitMode+0x26>

08001d0a <RTC_ExitInitMode>:
 8001d0a:	6803      	ldr	r3, [r0, #0]
 8001d0c:	68da      	ldr	r2, [r3, #12]
 8001d0e:	f022 0280 	bic.w	r2, r2, #128	@ 0x80
 8001d12:	b510      	push	{r4, lr}
 8001d14:	60da      	str	r2, [r3, #12]
 8001d16:	689b      	ldr	r3, [r3, #8]
 8001d18:	069b      	lsls	r3, r3, #26
 8001d1a:	4604      	mov	r4, r0
 8001d1c:	d501      	bpl.n	8001d22 <RTC_ExitInitMode+0x18>
 8001d1e:	2000      	movs	r0, #0
 8001d20:	bd10      	pop	{r4, pc}
 8001d22:	f7ff ffb9 	bl	8001c98 <HAL_RTC_WaitForSynchro>
 8001d26:	2800      	cmp	r0, #0
 8001d28:	d0f9      	beq.n	8001d1e <RTC_ExitInitMode+0x14>
 8001d2a:	2304      	movs	r3, #4
 8001d2c:	7763      	strb	r3, [r4, #29]
 8001d2e:	2001      	movs	r0, #1
 8001d30:	e7f6      	b.n	8001d20 <RTC_ExitInitMode+0x16>

08001d32 <HAL_RTC_Init>:
 8001d32:	b510      	push	{r4, lr}
 8001d34:	4604      	mov	r4, r0
 8001d36:	2800      	cmp	r0, #0
 8001d38:	d041      	beq.n	8001dbe <HAL_RTC_Init+0x8c>
 8001d3a:	7f43      	ldrb	r3, [r0, #29]
 8001d3c:	f003 02ff 	and.w	r2, r3, #255	@ 0xff
 8001d40:	b913      	cbnz	r3, 8001d48 <HAL_RTC_Init+0x16>
 8001d42:	7702      	strb	r2, [r0, #28]
 8001d44:	f7ff f81a 	bl	8000d7c <HAL_RTC_MspInit>
 8001d48:	2302      	movs	r3, #2
 8001d4a:	7763      	strb	r3, [r4, #29]
 8001d4c:	6823      	ldr	r3, [r4, #0]
 8001d4e:	68da      	ldr	r2, [r3, #12]
 8001d50:	06d2      	lsls	r2, r2, #27
 8001d52:	d503      	bpl.n	8001d5c <HAL_RTC_Init+0x2a>
 8001d54:	2301      	movs	r3, #1
 8001d56:	7763      	strb	r3, [r4, #29]
 8001d58:	2000      	movs	r0, #0
 8001d5a:	bd10      	pop	{r4, pc}
 8001d5c:	22ca      	movs	r2, #202	@ 0xca
 8001d5e:	625a      	str	r2, [r3, #36]	@ 0x24
 8001d60:	2253      	movs	r2, #83	@ 0x53
 8001d62:	625a      	str	r2, [r3, #36]	@ 0x24
 8001d64:	4620      	mov	r0, r4
 8001d66:	f7ff ffaf 	bl	8001cc8 <RTC_EnterInitMode>
 8001d6a:	bb10      	cbnz	r0, 8001db2 <HAL_RTC_Init+0x80>
 8001d6c:	6823      	ldr	r3, [r4, #0]
 8001d6e:	6920      	ldr	r0, [r4, #16]
 8001d70:	689a      	ldr	r2, [r3, #8]
 8001d72:	f422 02e0 	bic.w	r2, r2, #7340032	@ 0x700000
 8001d76:	f022 0240 	bic.w	r2, r2, #64	@ 0x40
 8001d7a:	609a      	str	r2, [r3, #8]
 8001d7c:	6862      	ldr	r2, [r4, #4]
 8001d7e:	6899      	ldr	r1, [r3, #8]
 8001d80:	4302      	orrs	r2, r0
 8001d82:	6960      	ldr	r0, [r4, #20]
 8001d84:	4302      	orrs	r2, r0
 8001d86:	430a      	orrs	r2, r1
 8001d88:	609a      	str	r2, [r3, #8]
 8001d8a:	68e2      	ldr	r2, [r4, #12]
 8001d8c:	611a      	str	r2, [r3, #16]
 8001d8e:	691a      	ldr	r2, [r3, #16]
 8001d90:	68a1      	ldr	r1, [r4, #8]
 8001d92:	ea42 4201 	orr.w	r2, r2, r1, lsl #16
 8001d96:	611a      	str	r2, [r3, #16]
 8001d98:	4620      	mov	r0, r4
 8001d9a:	f7ff ffb6 	bl	8001d0a <RTC_ExitInitMode>
 8001d9e:	b940      	cbnz	r0, 8001db2 <HAL_RTC_Init+0x80>
 8001da0:	6823      	ldr	r3, [r4, #0]
 8001da2:	69a1      	ldr	r1, [r4, #24]
 8001da4:	6c1a      	ldr	r2, [r3, #64]	@ 0x40
 8001da6:	f422 2280 	bic.w	r2, r2, #262144	@ 0x40000
 8001daa:	641a      	str	r2, [r3, #64]	@ 0x40
 8001dac:	6c1a      	ldr	r2, [r3, #64]	@ 0x40
 8001dae:	430a      	orrs	r2, r1
 8001db0:	641a      	str	r2, [r3, #64]	@ 0x40
 8001db2:	6823      	ldr	r3, [r4, #0]
 8001db4:	22ff      	movs	r2, #255	@ 0xff
 8001db6:	625a      	str	r2, [r3, #36]	@ 0x24
 8001db8:	2800      	cmp	r0, #0
 8001dba:	d0cb      	beq.n	8001d54 <HAL_RTC_Init+0x22>
 8001dbc:	e7cd      	b.n	8001d5a <HAL_RTC_Init+0x28>
 8001dbe:	2001      	movs	r0, #1
 8001dc0:	e7cb      	b.n	8001d5a <HAL_RTC_Init+0x28>

08001dc2 <HAL_RTCEx_BKUPWrite>:
 8001dc2:	6803      	ldr	r3, [r0, #0]
 8001dc4:	3350      	adds	r3, #80	@ 0x50
 8001dc6:	f843 2021 	str.w	r2, [r3, r1, lsl #2]
 8001dca:	4770      	bx	lr

08001dcc <HAL_RTCEx_BKUPRead>:
 8001dcc:	6803      	ldr	r3, [r0, #0]
 8001dce:	3350      	adds	r3, #80	@ 0x50
 8001dd0:	f853 0021 	ldr.w	r0, [r3, r1, lsl #2]
 8001dd4:	4770      	bx	lr

08001dd6 <HAL_SPI_Init>:
 8001dd6:	b510      	push	{r4, lr}
 8001dd8:	4604      	mov	r4, r0
 8001dda:	2800      	cmp	r0, #0
 8001ddc:	d055      	beq.n	8001e8a <HAL_SPI_Init+0xb4>
 8001dde:	6a43      	ldr	r3, [r0, #36]	@ 0x24
 8001de0:	2b00      	cmp	r3, #0
 8001de2:	d14e      	bne.n	8001e82 <HAL_SPI_Init+0xac>
 8001de4:	6842      	ldr	r2, [r0, #4]
 8001de6:	f5b2 7f82 	cmp.w	r2, #260	@ 0x104
 8001dea:	d000      	beq.n	8001dee <HAL_SPI_Init+0x18>
 8001dec:	61c3      	str	r3, [r0, #28]
 8001dee:	2300      	movs	r3, #0
 8001df0:	62a3      	str	r3, [r4, #40]	@ 0x28
 8001df2:	f894 3051 	ldrb.w	r3, [r4, #81]	@ 0x51
 8001df6:	f003 02ff 	and.w	r2, r3, #255	@ 0xff
 8001dfa:	b923      	cbnz	r3, 8001e06 <HAL_SPI_Init+0x30>
 8001dfc:	f884 2050 	strb.w	r2, [r4, #80]	@ 0x50
 8001e00:	4620      	mov	r0, r4
 8001e02:	f7fe ffdb 	bl	8000dbc <HAL_SPI_MspInit>
 8001e06:	6821      	ldr	r1, [r4, #0]
 8001e08:	68a0      	ldr	r0, [r4, #8]
 8001e0a:	69a2      	ldr	r2, [r4, #24]
 8001e0c:	2302      	movs	r3, #2
 8001e0e:	f884 3051 	strb.w	r3, [r4, #81]	@ 0x51
 8001e12:	680b      	ldr	r3, [r1, #0]
 8001e14:	f023 0340 	bic.w	r3, r3, #64	@ 0x40
 8001e18:	600b      	str	r3, [r1, #0]
 8001e1a:	6863      	ldr	r3, [r4, #4]
 8001e1c:	f400 4004 	and.w	r0, r0, #33792	@ 0x8400
 8001e20:	f403 7382 	and.w	r3, r3, #260	@ 0x104
 8001e24:	4303      	orrs	r3, r0
 8001e26:	68e0      	ldr	r0, [r4, #12]
 8001e28:	f400 6000 	and.w	r0, r0, #2048	@ 0x800
 8001e2c:	4303      	orrs	r3, r0
 8001e2e:	6920      	ldr	r0, [r4, #16]
 8001e30:	f000 0002 	and.w	r0, r0, #2
 8001e34:	4303      	orrs	r3, r0
 8001e36:	6960      	ldr	r0, [r4, #20]
 8001e38:	f000 0001 	and.w	r0, r0, #1
 8001e3c:	4303      	orrs	r3, r0
 8001e3e:	f402 7000 	and.w	r0, r2, #512	@ 0x200
 8001e42:	4303      	orrs	r3, r0
 8001e44:	69e0      	ldr	r0, [r4, #28]
 8001e46:	f000 0038 	and.w	r0, r0, #56	@ 0x38
 8001e4a:	4303      	orrs	r3, r0
 8001e4c:	6a20      	ldr	r0, [r4, #32]
 8001e4e:	f000 0080 	and.w	r0, r0, #128	@ 0x80
 8001e52:	4303      	orrs	r3, r0
 8001e54:	6aa0      	ldr	r0, [r4, #40]	@ 0x28
 8001e56:	f400 5000 	and.w	r0, r0, #8192	@ 0x2000
 8001e5a:	4303      	orrs	r3, r0
 8001e5c:	600b      	str	r3, [r1, #0]
 8001e5e:	6a63      	ldr	r3, [r4, #36]	@ 0x24
 8001e60:	0c12      	lsrs	r2, r2, #16
 8001e62:	f003 0310 	and.w	r3, r3, #16
 8001e66:	f002 0204 	and.w	r2, r2, #4
 8001e6a:	431a      	orrs	r2, r3
 8001e6c:	604a      	str	r2, [r1, #4]
 8001e6e:	69cb      	ldr	r3, [r1, #28]
 8001e70:	f423 6300 	bic.w	r3, r3, #2048	@ 0x800
 8001e74:	61cb      	str	r3, [r1, #28]
 8001e76:	2000      	movs	r0, #0
 8001e78:	2301      	movs	r3, #1
 8001e7a:	6560      	str	r0, [r4, #84]	@ 0x54
 8001e7c:	f884 3051 	strb.w	r3, [r4, #81]	@ 0x51
 8001e80:	bd10      	pop	{r4, pc}
 8001e82:	2300      	movs	r3, #0
 8001e84:	e9c0 3304 	strd	r3, r3, [r0, #16]
 8001e88:	e7b1      	b.n	8001dee <HAL_SPI_Init+0x18>
 8001e8a:	2001      	movs	r0, #1
 8001e8c:	e7f8      	b.n	8001e80 <HAL_SPI_Init+0xaa>

08001e8e <UART_EndRxTransfer>:
 8001e8e:	6802      	ldr	r2, [r0, #0]
 8001e90:	f102 030c 	add.w	r3, r2, #12
 8001e94:	e853 3f00 	ldrex	r3, [r3]
 8001e98:	f423 7390 	bic.w	r3, r3, #288	@ 0x120
 8001e9c:	320c      	adds	r2, #12
 8001e9e:	e842 3100 	strex	r1, r3, [r2]
 8001ea2:	6802      	ldr	r2, [r0, #0]
 8001ea4:	2900      	cmp	r1, #0
 8001ea6:	d1f2      	bne.n	8001e8e <UART_EndRxTransfer>
 8001ea8:	f102 0314 	add.w	r3, r2, #20
 8001eac:	e853 3f00 	ldrex	r3, [r3]
 8001eb0:	f023 0301 	bic.w	r3, r3, #1
 8001eb4:	f102 0c14 	add.w	ip, r2, #20
 8001eb8:	e84c 3100 	strex	r1, r3, [ip]
 8001ebc:	2900      	cmp	r1, #0
 8001ebe:	d1f3      	bne.n	8001ea8 <UART_EndRxTransfer+0x1a>
 8001ec0:	6b03      	ldr	r3, [r0, #48]	@ 0x30
 8001ec2:	2b01      	cmp	r3, #1
 8001ec4:	d10b      	bne.n	8001ede <UART_EndRxTransfer+0x50>
 8001ec6:	f102 030c 	add.w	r3, r2, #12
 8001eca:	e853 3f00 	ldrex	r3, [r3]
 8001ece:	f023 0310 	bic.w	r3, r3, #16
 8001ed2:	f102 0c0c 	add.w	ip, r2, #12
 8001ed6:	e84c 3100 	strex	r1, r3, [ip]
 8001eda:	2900      	cmp	r1, #0
 8001edc:	d1f3      	bne.n	8001ec6 <UART_EndRxTransfer+0x38>
 8001ede:	2320      	movs	r3, #32
 8001ee0:	f880 3042 	strb.w	r3, [r0, #66]	@ 0x42
 8001ee4:	2300      	movs	r3, #0
 8001ee6:	6303      	str	r3, [r0, #48]	@ 0x30
 8001ee8:	4770      	bx	lr
	...

08001eec <UART_SetConfig>:
 8001eec:	6802      	ldr	r2, [r0, #0]
 8001eee:	68c1      	ldr	r1, [r0, #12]
 8001ef0:	b538      	push	{r3, r4, r5, lr}
 8001ef2:	6913      	ldr	r3, [r2, #16]
 8001ef4:	f423 5340 	bic.w	r3, r3, #12288	@ 0x3000
 8001ef8:	430b      	orrs	r3, r1
 8001efa:	6113      	str	r3, [r2, #16]
 8001efc:	4605      	mov	r5, r0
 8001efe:	6883      	ldr	r3, [r0, #8]
 8001f00:	6900      	ldr	r0, [r0, #16]
 8001f02:	68d1      	ldr	r1, [r2, #12]
 8001f04:	4303      	orrs	r3, r0
 8001f06:	6968      	ldr	r0, [r5, #20]
 8001f08:	4303      	orrs	r3, r0
 8001f0a:	69e8      	ldr	r0, [r5, #28]
 8001f0c:	f421 4116 	bic.w	r1, r1, #38400	@ 0x9600
 8001f10:	f021 010c 	bic.w	r1, r1, #12
 8001f14:	4303      	orrs	r3, r0
 8001f16:	430b      	orrs	r3, r1
 8001f18:	60d3      	str	r3, [r2, #12]
 8001f1a:	6953      	ldr	r3, [r2, #20]
 8001f1c:	69a9      	ldr	r1, [r5, #24]
 8001f1e:	f423 7340 	bic.w	r3, r3, #768	@ 0x300
 8001f22:	430b      	orrs	r3, r1
 8001f24:	6153      	str	r3, [r2, #20]
 8001f26:	4b1f      	ldr	r3, [pc, #124]	@ (8001fa4 <UART_SetConfig+0xb8>)
 8001f28:	429a      	cmp	r2, r3
 8001f2a:	d003      	beq.n	8001f34 <UART_SetConfig+0x48>
 8001f2c:	f503 6380 	add.w	r3, r3, #1024	@ 0x400
 8001f30:	429a      	cmp	r2, r3
 8001f32:	d124      	bne.n	8001f7e <UART_SetConfig+0x92>
 8001f34:	f7ff fd78 	bl	8001a28 <HAL_RCC_GetPCLK2Freq>
 8001f38:	69ea      	ldr	r2, [r5, #28]
 8001f3a:	2119      	movs	r1, #25
 8001f3c:	f5b2 4f00 	cmp.w	r2, #32768	@ 0x8000
 8001f40:	e9d5 4300 	ldrd	r4, r3, [r5]
 8001f44:	fba0 0101 	umull	r0, r1, r0, r1
 8001f48:	d11c      	bne.n	8001f84 <UART_SetConfig+0x98>
 8001f4a:	18da      	adds	r2, r3, r3
 8001f4c:	f04f 0500 	mov.w	r5, #0
 8001f50:	eb45 0305 	adc.w	r3, r5, r5
 8001f54:	f7fe f938 	bl	80001c8 <__aeabi_uldivmod>
 8001f58:	2264      	movs	r2, #100	@ 0x64
 8001f5a:	fbb0 f1f2 	udiv	r1, r0, r2
 8001f5e:	fb02 0311 	mls	r3, r2, r1, r0
 8001f62:	00db      	lsls	r3, r3, #3
 8001f64:	3332      	adds	r3, #50	@ 0x32
 8001f66:	fbb3 f3f2 	udiv	r3, r3, r2
 8001f6a:	f003 0207 	and.w	r2, r3, #7
 8001f6e:	005b      	lsls	r3, r3, #1
 8001f70:	eb02 1201 	add.w	r2, r2, r1, lsl #4
 8001f74:	f403 73f8 	and.w	r3, r3, #496	@ 0x1f0
 8001f78:	4413      	add	r3, r2
 8001f7a:	60a3      	str	r3, [r4, #8]
 8001f7c:	bd38      	pop	{r3, r4, r5, pc}
 8001f7e:	f7ff fd43 	bl	8001a08 <HAL_RCC_GetPCLK1Freq>
 8001f82:	e7d9      	b.n	8001f38 <UART_SetConfig+0x4c>
 8001f84:	009a      	lsls	r2, r3, #2
 8001f86:	0f9b      	lsrs	r3, r3, #30
 8001f88:	f7fe f91e 	bl	80001c8 <__aeabi_uldivmod>
 8001f8c:	2264      	movs	r2, #100	@ 0x64
 8001f8e:	fbb0 f1f2 	udiv	r1, r0, r2
 8001f92:	fb02 0311 	mls	r3, r2, r1, r0
 8001f96:	011b      	lsls	r3, r3, #4
 8001f98:	3332      	adds	r3, #50	@ 0x32
 8001f9a:	fbb3 f3f2 	udiv	r3, r3, r2
 8001f9e:	eb03 1301 	add.w	r3, r3, r1, lsl #4
 8001fa2:	e7ea      	b.n	8001f7a <UART_SetConfig+0x8e>
 8001fa4:	40011000 	.word	0x40011000

08001fa8 <UART_WaitOnFlagUntilTimeout.constprop.0>:
 8001fa8:	b5f7      	push	{r0, r1, r2, r4, r5, r6, r7, lr}
 8001faa:	4605      	mov	r5, r0
 8001fac:	460c      	mov	r4, r1
 8001fae:	4617      	mov	r7, r2
 8001fb0:	461e      	mov	r6, r3
 8001fb2:	682a      	ldr	r2, [r5, #0]
 8001fb4:	6813      	ldr	r3, [r2, #0]
 8001fb6:	ea34 0303 	bics.w	r3, r4, r3
 8001fba:	d101      	bne.n	8001fc0 <UART_WaitOnFlagUntilTimeout.constprop.0+0x18>
 8001fbc:	2000      	movs	r0, #0
 8001fbe:	e021      	b.n	8002004 <UART_WaitOnFlagUntilTimeout.constprop.0+0x5c>
 8001fc0:	1c70      	adds	r0, r6, #1
 8001fc2:	d0f7      	beq.n	8001fb4 <UART_WaitOnFlagUntilTimeout.constprop.0+0xc>
 8001fc4:	f7ff f80c 	bl	8000fe0 <HAL_GetTick>
 8001fc8:	1bc0      	subs	r0, r0, r7
 8001fca:	4286      	cmp	r6, r0
 8001fcc:	d31c      	bcc.n	8002008 <UART_WaitOnFlagUntilTimeout.constprop.0+0x60>
 8001fce:	b1de      	cbz	r6, 8002008 <UART_WaitOnFlagUntilTimeout.constprop.0+0x60>
 8001fd0:	682b      	ldr	r3, [r5, #0]
 8001fd2:	68da      	ldr	r2, [r3, #12]
 8001fd4:	0751      	lsls	r1, r2, #29
 8001fd6:	d5ec      	bpl.n	8001fb2 <UART_WaitOnFlagUntilTimeout.constprop.0+0xa>
 8001fd8:	2c80      	cmp	r4, #128	@ 0x80
 8001fda:	d0ea      	beq.n	8001fb2 <UART_WaitOnFlagUntilTimeout.constprop.0+0xa>
 8001fdc:	2c40      	cmp	r4, #64	@ 0x40
 8001fde:	d0e8      	beq.n	8001fb2 <UART_WaitOnFlagUntilTimeout.constprop.0+0xa>
 8001fe0:	681a      	ldr	r2, [r3, #0]
 8001fe2:	0712      	lsls	r2, r2, #28
 8001fe4:	d5e5      	bpl.n	8001fb2 <UART_WaitOnFlagUntilTimeout.constprop.0+0xa>
 8001fe6:	2400      	movs	r4, #0
 8001fe8:	9401      	str	r4, [sp, #4]
 8001fea:	681a      	ldr	r2, [r3, #0]
 8001fec:	9201      	str	r2, [sp, #4]
 8001fee:	685b      	ldr	r3, [r3, #4]
 8001ff0:	9301      	str	r3, [sp, #4]
 8001ff2:	4628      	mov	r0, r5
 8001ff4:	9b01      	ldr	r3, [sp, #4]
 8001ff6:	f7ff ff4a 	bl	8001e8e <UART_EndRxTransfer>
 8001ffa:	2308      	movs	r3, #8
 8001ffc:	646b      	str	r3, [r5, #68]	@ 0x44
 8001ffe:	f885 4040 	strb.w	r4, [r5, #64]	@ 0x40
 8002002:	2001      	movs	r0, #1
 8002004:	b003      	add	sp, #12
 8002006:	bdf0      	pop	{r4, r5, r6, r7, pc}
 8002008:	2003      	movs	r0, #3
 800200a:	e7fb      	b.n	8002004 <UART_WaitOnFlagUntilTimeout.constprop.0+0x5c>

0800200c <HAL_UART_Init>:
 800200c:	b510      	push	{r4, lr}
 800200e:	4604      	mov	r4, r0
 8002010:	b348      	cbz	r0, 8002066 <HAL_UART_Init+0x5a>
 8002012:	f890 3041 	ldrb.w	r3, [r0, #65]	@ 0x41
 8002016:	f003 02ff 	and.w	r2, r3, #255	@ 0xff
 800201a:	b91b      	cbnz	r3, 8002024 <HAL_UART_Init+0x18>
 800201c:	f880 2040 	strb.w	r2, [r0, #64]	@ 0x40
 8002020:	f7fe ff02 	bl	8000e28 <HAL_UART_MspInit>
 8002024:	6822      	ldr	r2, [r4, #0]
 8002026:	2324      	movs	r3, #36	@ 0x24
 8002028:	f884 3041 	strb.w	r3, [r4, #65]	@ 0x41
 800202c:	68d3      	ldr	r3, [r2, #12]
 800202e:	f423 5300 	bic.w	r3, r3, #8192	@ 0x2000
 8002032:	60d3      	str	r3, [r2, #12]
 8002034:	4620      	mov	r0, r4
 8002036:	f7ff ff59 	bl	8001eec <UART_SetConfig>
 800203a:	6823      	ldr	r3, [r4, #0]
 800203c:	691a      	ldr	r2, [r3, #16]
 800203e:	f422 4290 	bic.w	r2, r2, #18432	@ 0x4800
 8002042:	611a      	str	r2, [r3, #16]
 8002044:	695a      	ldr	r2, [r3, #20]
 8002046:	f022 022a 	bic.w	r2, r2, #42	@ 0x2a
 800204a:	615a      	str	r2, [r3, #20]
 800204c:	68da      	ldr	r2, [r3, #12]
 800204e:	f442 5200 	orr.w	r2, r2, #8192	@ 0x2000
 8002052:	60da      	str	r2, [r3, #12]
 8002054:	2000      	movs	r0, #0
 8002056:	2320      	movs	r3, #32
 8002058:	6460      	str	r0, [r4, #68]	@ 0x44
 800205a:	f884 3041 	strb.w	r3, [r4, #65]	@ 0x41
 800205e:	f884 3042 	strb.w	r3, [r4, #66]	@ 0x42
 8002062:	6360      	str	r0, [r4, #52]	@ 0x34
 8002064:	bd10      	pop	{r4, pc}
 8002066:	2001      	movs	r0, #1
 8002068:	e7fc      	b.n	8002064 <HAL_UART_Init+0x58>

0800206a <HAL_UART_Transmit>:
 800206a:	e92d 43f8 	stmdb	sp!, {r3, r4, r5, r6, r7, r8, r9, lr}
 800206e:	4698      	mov	r8, r3
 8002070:	f890 3041 	ldrb.w	r3, [r0, #65]	@ 0x41
 8002074:	2b20      	cmp	r3, #32
 8002076:	4604      	mov	r4, r0
 8002078:	460e      	mov	r6, r1
 800207a:	4617      	mov	r7, r2
 800207c:	d13f      	bne.n	80020fe <HAL_UART_Transmit+0x94>
 800207e:	2900      	cmp	r1, #0
 8002080:	d03f      	beq.n	8002102 <HAL_UART_Transmit+0x98>
 8002082:	2a00      	cmp	r2, #0
 8002084:	d03d      	beq.n	8002102 <HAL_UART_Transmit+0x98>
 8002086:	2321      	movs	r3, #33	@ 0x21
 8002088:	2500      	movs	r5, #0
 800208a:	6445      	str	r5, [r0, #68]	@ 0x44
 800208c:	f880 3041 	strb.w	r3, [r0, #65]	@ 0x41
 8002090:	f7fe ffa6 	bl	8000fe0 <HAL_GetTick>
 8002094:	68a3      	ldr	r3, [r4, #8]
 8002096:	84a7      	strh	r7, [r4, #36]	@ 0x24
 8002098:	f5b3 5f80 	cmp.w	r3, #4096	@ 0x1000
 800209c:	4681      	mov	r9, r0
 800209e:	84e7      	strh	r7, [r4, #38]	@ 0x26
 80020a0:	d103      	bne.n	80020aa <HAL_UART_Transmit+0x40>
 80020a2:	6923      	ldr	r3, [r4, #16]
 80020a4:	b90b      	cbnz	r3, 80020aa <HAL_UART_Transmit+0x40>
 80020a6:	4635      	mov	r5, r6
 80020a8:	461e      	mov	r6, r3
 80020aa:	8ce3      	ldrh	r3, [r4, #38]	@ 0x26
 80020ac:	b29b      	uxth	r3, r3
 80020ae:	b953      	cbnz	r3, 80020c6 <HAL_UART_Transmit+0x5c>
 80020b0:	4643      	mov	r3, r8
 80020b2:	464a      	mov	r2, r9
 80020b4:	2140      	movs	r1, #64	@ 0x40
 80020b6:	4620      	mov	r0, r4
 80020b8:	f7ff ff76 	bl	8001fa8 <UART_WaitOnFlagUntilTimeout.constprop.0>
 80020bc:	2320      	movs	r3, #32
 80020be:	b950      	cbnz	r0, 80020d6 <HAL_UART_Transmit+0x6c>
 80020c0:	f884 3041 	strb.w	r3, [r4, #65]	@ 0x41
 80020c4:	e00a      	b.n	80020dc <HAL_UART_Transmit+0x72>
 80020c6:	4643      	mov	r3, r8
 80020c8:	464a      	mov	r2, r9
 80020ca:	2180      	movs	r1, #128	@ 0x80
 80020cc:	4620      	mov	r0, r4
 80020ce:	f7ff ff6b 	bl	8001fa8 <UART_WaitOnFlagUntilTimeout.constprop.0>
 80020d2:	b128      	cbz	r0, 80020e0 <HAL_UART_Transmit+0x76>
 80020d4:	2320      	movs	r3, #32
 80020d6:	f884 3041 	strb.w	r3, [r4, #65]	@ 0x41
 80020da:	2003      	movs	r0, #3
 80020dc:	e8bd 83f8 	ldmia.w	sp!, {r3, r4, r5, r6, r7, r8, r9, pc}
 80020e0:	6822      	ldr	r2, [r4, #0]
 80020e2:	b94e      	cbnz	r6, 80020f8 <HAL_UART_Transmit+0x8e>
 80020e4:	f835 3b02 	ldrh.w	r3, [r5], #2
 80020e8:	f3c3 0308 	ubfx	r3, r3, #0, #9
 80020ec:	6053      	str	r3, [r2, #4]
 80020ee:	8ce1      	ldrh	r1, [r4, #38]	@ 0x26
 80020f0:	3901      	subs	r1, #1
 80020f2:	b289      	uxth	r1, r1
 80020f4:	84e1      	strh	r1, [r4, #38]	@ 0x26
 80020f6:	e7d8      	b.n	80020aa <HAL_UART_Transmit+0x40>
 80020f8:	f816 3b01 	ldrb.w	r3, [r6], #1
 80020fc:	e7f6      	b.n	80020ec <HAL_UART_Transmit+0x82>
 80020fe:	2002      	movs	r0, #2
 8002100:	e7ec      	b.n	80020dc <HAL_UART_Transmit+0x72>
 8002102:	2001      	movs	r0, #1
 8002104:	e7ea      	b.n	80020dc <HAL_UART_Transmit+0x72>
	...

08002108 <MX_FATFS_Init>:
 8002108:	b508      	push	{r3, lr}
 800210a:	4903      	ldr	r1, [pc, #12]	@ (8002118 <MX_FATFS_Init+0x10>)
 800210c:	4803      	ldr	r0, [pc, #12]	@ (800211c <MX_FATFS_Init+0x14>)
 800210e:	f002 fe7f 	bl	8004e10 <FATFS_LinkDriver>
 8002112:	4b03      	ldr	r3, [pc, #12]	@ (8002120 <MX_FATFS_Init+0x18>)
 8002114:	7018      	strb	r0, [r3, #0]
 8002116:	bd08      	pop	{r3, pc}
 8002118:	200015c4 	.word	0x200015c4
 800211c:	2000000c 	.word	0x2000000c
 8002120:	200015c8 	.word	0x200015c8

08002124 <get_fattime>:
 8002124:	2000      	movs	r0, #0
 8002126:	4770      	bx	lr

08002128 <USER_initialize>:
 8002128:	f000 b918 	b.w	800235c <USER_SPI_initialize>

0800212c <USER_status>:
 800212c:	f000 b8fe 	b.w	800232c <USER_SPI_status>

08002130 <USER_read>:
 8002130:	f000 b9aa 	b.w	8002488 <USER_SPI_read>

08002134 <USER_write>:
 8002134:	f000 b9e8 	b.w	8002508 <USER_SPI_write>

08002138 <USER_ioctl>:
 8002138:	f000 ba36 	b.w	80025a8 <USER_SPI_ioctl>

0800213c <HAL_SPI_TransmitReceive_fast>:
 800213c:	4b0e      	ldr	r3, [pc, #56]	@ (8002178 <HAL_SPI_TransmitReceive_fast+0x3c>)
 800213e:	b570      	push	{r4, r5, r6, lr}
 8002140:	681c      	ldr	r4, [r3, #0]
 8002142:	4e0e      	ldr	r6, [pc, #56]	@ (800217c <HAL_SPI_TransmitReceive_fast+0x40>)
 8002144:	25ff      	movs	r5, #255	@ 0xff
 8002146:	b912      	cbnz	r2, 800214e <HAL_SPI_TransmitReceive_fast+0x12>
 8002148:	4b0c      	ldr	r3, [pc, #48]	@ (800217c <HAL_SPI_TransmitReceive_fast+0x40>)
 800214a:	781b      	ldrb	r3, [r3, #0]
 800214c:	bd70      	pop	{r4, r5, r6, pc}
 800214e:	68a3      	ldr	r3, [r4, #8]
 8002150:	079b      	lsls	r3, r3, #30
 8002152:	d5fc      	bpl.n	800214e <HAL_SPI_TransmitReceive_fast+0x12>
 8002154:	b158      	cbz	r0, 800216e <HAL_SPI_TransmitReceive_fast+0x32>
 8002156:	f810 3b01 	ldrb.w	r3, [r0], #1
 800215a:	7323      	strb	r3, [r4, #12]
 800215c:	68a3      	ldr	r3, [r4, #8]
 800215e:	07db      	lsls	r3, r3, #31
 8002160:	d5fc      	bpl.n	800215c <HAL_SPI_TransmitReceive_fast+0x20>
 8002162:	7b23      	ldrb	r3, [r4, #12]
 8002164:	b129      	cbz	r1, 8002172 <HAL_SPI_TransmitReceive_fast+0x36>
 8002166:	f801 3b01 	strb.w	r3, [r1], #1
 800216a:	3a01      	subs	r2, #1
 800216c:	e7eb      	b.n	8002146 <HAL_SPI_TransmitReceive_fast+0xa>
 800216e:	7325      	strb	r5, [r4, #12]
 8002170:	e7f4      	b.n	800215c <HAL_SPI_TransmitReceive_fast+0x20>
 8002172:	b2db      	uxtb	r3, r3
 8002174:	7033      	strb	r3, [r6, #0]
 8002176:	e7f8      	b.n	800216a <HAL_SPI_TransmitReceive_fast+0x2e>
 8002178:	20001528 	.word	0x20001528
 800217c:	200015c9 	.word	0x200015c9

08002180 <receive_mmc1>:
 8002180:	b507      	push	{r0, r1, r2, lr}
 8002182:	2201      	movs	r2, #1
 8002184:	f10d 0107 	add.w	r1, sp, #7
 8002188:	2000      	movs	r0, #0
 800218a:	f7ff ffd7 	bl	800213c <HAL_SPI_TransmitReceive_fast>
 800218e:	f89d 0007 	ldrb.w	r0, [sp, #7]
 8002192:	b003      	add	sp, #12
 8002194:	f85d fb04 	ldr.w	pc, [sp], #4

08002198 <wait_ready>:
 8002198:	b570      	push	{r4, r5, r6, lr}
 800219a:	4605      	mov	r5, r0
 800219c:	f7fe ff20 	bl	8000fe0 <HAL_GetTick>
 80021a0:	2400      	movs	r4, #0
 80021a2:	4606      	mov	r6, r0
 80021a4:	f7fe ff1c 	bl	8000fe0 <HAL_GetTick>
 80021a8:	1b83      	subs	r3, r0, r6
 80021aa:	42ab      	cmp	r3, r5
 80021ac:	d204      	bcs.n	80021b8 <wait_ready+0x20>
 80021ae:	f7ff ffe7 	bl	8002180 <receive_mmc1>
 80021b2:	28ff      	cmp	r0, #255	@ 0xff
 80021b4:	4604      	mov	r4, r0
 80021b6:	d1f5      	bne.n	80021a4 <wait_ready+0xc>
 80021b8:	f1a4 03ff 	sub.w	r3, r4, #255	@ 0xff
 80021bc:	4258      	negs	r0, r3
 80021be:	4158      	adcs	r0, r3
 80021c0:	bd70      	pop	{r4, r5, r6, pc}
	...

080021c4 <spi_deselect>:
 80021c4:	b508      	push	{r3, lr}
 80021c6:	4805      	ldr	r0, [pc, #20]	@ (80021dc <spi_deselect+0x18>)
 80021c8:	2201      	movs	r2, #1
 80021ca:	f44f 7100 	mov.w	r1, #512	@ 0x200
 80021ce:	f7ff f97b 	bl	80014c8 <HAL_GPIO_WritePin>
 80021d2:	e8bd 4008 	ldmia.w	sp!, {r3, lr}
 80021d6:	f7ff bfd3 	b.w	8002180 <receive_mmc1>
 80021da:	bf00      	nop
 80021dc:	40020800 	.word	0x40020800

080021e0 <spi_select>:
 80021e0:	b510      	push	{r4, lr}
 80021e2:	2200      	movs	r2, #0
 80021e4:	f44f 7100 	mov.w	r1, #512	@ 0x200
 80021e8:	4808      	ldr	r0, [pc, #32]	@ (800220c <spi_select+0x2c>)
 80021ea:	f7ff f96d 	bl	80014c8 <HAL_GPIO_WritePin>
 80021ee:	f7ff ffc7 	bl	8002180 <receive_mmc1>
 80021f2:	f44f 70fa 	mov.w	r0, #500	@ 0x1f4
 80021f6:	f7ff ffcf 	bl	8002198 <wait_ready>
 80021fa:	4604      	mov	r4, r0
 80021fc:	b918      	cbnz	r0, 8002206 <spi_select+0x26>
 80021fe:	f7ff ffe1 	bl	80021c4 <spi_deselect>
 8002202:	4620      	mov	r0, r4
 8002204:	bd10      	pop	{r4, pc}
 8002206:	2401      	movs	r4, #1
 8002208:	e7fb      	b.n	8002202 <spi_select+0x22>
 800220a:	bf00      	nop
 800220c:	40020800 	.word	0x40020800

08002210 <receive_datablock>:
 8002210:	b537      	push	{r0, r1, r2, r4, r5, lr}
 8002212:	4604      	mov	r4, r0
 8002214:	460d      	mov	r5, r1
 8002216:	f7ff ffb3 	bl	8002180 <receive_mmc1>
 800221a:	28ff      	cmp	r0, #255	@ 0xff
 800221c:	f88d 0004 	strb.w	r0, [sp, #4]
 8002220:	d0f9      	beq.n	8002216 <receive_datablock+0x6>
 8002222:	28fe      	cmp	r0, #254	@ 0xfe
 8002224:	d10c      	bne.n	8002240 <receive_datablock+0x30>
 8002226:	b2aa      	uxth	r2, r5
 8002228:	4621      	mov	r1, r4
 800222a:	2000      	movs	r0, #0
 800222c:	f7ff ff86 	bl	800213c <HAL_SPI_TransmitReceive_fast>
 8002230:	2000      	movs	r0, #0
 8002232:	2202      	movs	r2, #2
 8002234:	a901      	add	r1, sp, #4
 8002236:	f7ff ff81 	bl	800213c <HAL_SPI_TransmitReceive_fast>
 800223a:	2001      	movs	r0, #1
 800223c:	b003      	add	sp, #12
 800223e:	bd30      	pop	{r4, r5, pc}
 8002240:	2000      	movs	r0, #0
 8002242:	e7fb      	b.n	800223c <receive_datablock+0x2c>

08002244 <transmit_mmc1.isra.0>:
 8002244:	b51f      	push	{r0, r1, r2, r3, r4, lr}
 8002246:	2201      	movs	r2, #1
 8002248:	f88d 0007 	strb.w	r0, [sp, #7]
 800224c:	f10d 010f 	add.w	r1, sp, #15
 8002250:	f10d 0007 	add.w	r0, sp, #7
 8002254:	f7ff ff72 	bl	800213c <HAL_SPI_TransmitReceive_fast>
 8002258:	b005      	add	sp, #20
 800225a:	f85d fb04 	ldr.w	pc, [sp], #4

0800225e <send_cmd>:
 800225e:	0602      	lsls	r2, r0, #24
 8002260:	b538      	push	{r3, r4, r5, lr}
 8002262:	4604      	mov	r4, r0
 8002264:	460d      	mov	r5, r1
 8002266:	d507      	bpl.n	8002278 <send_cmd+0x1a>
 8002268:	2100      	movs	r1, #0
 800226a:	2037      	movs	r0, #55	@ 0x37
 800226c:	f7ff fff7 	bl	800225e <send_cmd>
 8002270:	2801      	cmp	r0, #1
 8002272:	d829      	bhi.n	80022c8 <send_cmd+0x6a>
 8002274:	f004 047f 	and.w	r4, r4, #127	@ 0x7f
 8002278:	2c0c      	cmp	r4, #12
 800227a:	d126      	bne.n	80022ca <send_cmd+0x6c>
 800227c:	f044 0040 	orr.w	r0, r4, #64	@ 0x40
 8002280:	f7ff ffe0 	bl	8002244 <transmit_mmc1.isra.0>
 8002284:	0e28      	lsrs	r0, r5, #24
 8002286:	f7ff ffdd 	bl	8002244 <transmit_mmc1.isra.0>
 800228a:	f3c5 4007 	ubfx	r0, r5, #16, #8
 800228e:	f7ff ffd9 	bl	8002244 <transmit_mmc1.isra.0>
 8002292:	f3c5 2007 	ubfx	r0, r5, #8, #8
 8002296:	f7ff ffd5 	bl	8002244 <transmit_mmc1.isra.0>
 800229a:	b2e8      	uxtb	r0, r5
 800229c:	f7ff ffd2 	bl	8002244 <transmit_mmc1.isra.0>
 80022a0:	b1dc      	cbz	r4, 80022da <send_cmd+0x7c>
 80022a2:	2c08      	cmp	r4, #8
 80022a4:	bf0c      	ite	eq
 80022a6:	2087      	moveq	r0, #135	@ 0x87
 80022a8:	2001      	movne	r0, #1
 80022aa:	f7ff ffcb 	bl	8002244 <transmit_mmc1.isra.0>
 80022ae:	2c0c      	cmp	r4, #12
 80022b0:	d101      	bne.n	80022b6 <send_cmd+0x58>
 80022b2:	f7ff ff65 	bl	8002180 <receive_mmc1>
 80022b6:	240a      	movs	r4, #10
 80022b8:	f7ff ff62 	bl	8002180 <receive_mmc1>
 80022bc:	0603      	lsls	r3, r0, #24
 80022be:	d503      	bpl.n	80022c8 <send_cmd+0x6a>
 80022c0:	3c01      	subs	r4, #1
 80022c2:	f014 04ff 	ands.w	r4, r4, #255	@ 0xff
 80022c6:	d1f7      	bne.n	80022b8 <send_cmd+0x5a>
 80022c8:	bd38      	pop	{r3, r4, r5, pc}
 80022ca:	f7ff ff7b 	bl	80021c4 <spi_deselect>
 80022ce:	f7ff ff87 	bl	80021e0 <spi_select>
 80022d2:	2800      	cmp	r0, #0
 80022d4:	d1d2      	bne.n	800227c <send_cmd+0x1e>
 80022d6:	20ff      	movs	r0, #255	@ 0xff
 80022d8:	e7f6      	b.n	80022c8 <send_cmd+0x6a>
 80022da:	2095      	movs	r0, #149	@ 0x95
 80022dc:	e7e5      	b.n	80022aa <send_cmd+0x4c>

080022de <transmit_datablock>:
 80022de:	b537      	push	{r0, r1, r2, r4, r5, lr}
 80022e0:	4605      	mov	r5, r0
 80022e2:	f44f 70fa 	mov.w	r0, #500	@ 0x1f4
 80022e6:	460c      	mov	r4, r1
 80022e8:	f7ff ff56 	bl	8002198 <wait_ready>
 80022ec:	b1d0      	cbz	r0, 8002324 <transmit_datablock+0x46>
 80022ee:	2201      	movs	r2, #1
 80022f0:	2100      	movs	r1, #0
 80022f2:	a801      	add	r0, sp, #4
 80022f4:	f88d 4004 	strb.w	r4, [sp, #4]
 80022f8:	f7ff ff20 	bl	800213c <HAL_SPI_TransmitReceive_fast>
 80022fc:	2cfd      	cmp	r4, #253	@ 0xfd
 80022fe:	d013      	beq.n	8002328 <transmit_datablock+0x4a>
 8002300:	f44f 7200 	mov.w	r2, #512	@ 0x200
 8002304:	2100      	movs	r1, #0
 8002306:	4628      	mov	r0, r5
 8002308:	f7ff ff18 	bl	800213c <HAL_SPI_TransmitReceive_fast>
 800230c:	2202      	movs	r2, #2
 800230e:	a901      	add	r1, sp, #4
 8002310:	2000      	movs	r0, #0
 8002312:	f7ff ff13 	bl	800213c <HAL_SPI_TransmitReceive_fast>
 8002316:	f7ff ff33 	bl	8002180 <receive_mmc1>
 800231a:	f000 001f 	and.w	r0, r0, #31
 800231e:	1f43      	subs	r3, r0, #5
 8002320:	4258      	negs	r0, r3
 8002322:	4158      	adcs	r0, r3
 8002324:	b003      	add	sp, #12
 8002326:	bd30      	pop	{r4, r5, pc}
 8002328:	2001      	movs	r0, #1
 800232a:	e7fb      	b.n	8002324 <transmit_datablock+0x46>

0800232c <USER_SPI_status>:
 800232c:	b510      	push	{r4, lr}
 800232e:	b988      	cbnz	r0, 8002354 <USER_SPI_status+0x28>
 8002330:	4c09      	ldr	r4, [pc, #36]	@ (8002358 <USER_SPI_status+0x2c>)
 8002332:	7821      	ldrb	r1, [r4, #0]
 8002334:	f011 0101 	ands.w	r1, r1, #1
 8002338:	d109      	bne.n	800234e <USER_SPI_status+0x22>
 800233a:	200d      	movs	r0, #13
 800233c:	f7ff ff8f 	bl	800225e <send_cmd>
 8002340:	b108      	cbz	r0, 8002346 <USER_SPI_status+0x1a>
 8002342:	2301      	movs	r3, #1
 8002344:	7023      	strb	r3, [r4, #0]
 8002346:	f7ff ff1b 	bl	8002180 <receive_mmc1>
 800234a:	f7ff ff3b 	bl	80021c4 <spi_deselect>
 800234e:	7820      	ldrb	r0, [r4, #0]
 8002350:	b2c0      	uxtb	r0, r0
 8002352:	bd10      	pop	{r4, pc}
 8002354:	2001      	movs	r0, #1
 8002356:	e7fc      	b.n	8002352 <USER_SPI_status+0x26>
 8002358:	20000020 	.word	0x20000020

0800235c <USER_SPI_initialize>:
 800235c:	b5f7      	push	{r0, r1, r2, r4, r5, r6, r7, lr}
 800235e:	2800      	cmp	r0, #0
 8002360:	f040 8081 	bne.w	8002466 <USER_SPI_initialize+0x10a>
 8002364:	4f45      	ldr	r7, [pc, #276]	@ (800247c <USER_SPI_initialize+0x120>)
 8002366:	4d46      	ldr	r5, [pc, #280]	@ (8002480 <USER_SPI_initialize+0x124>)
 8002368:	683b      	ldr	r3, [r7, #0]
 800236a:	681a      	ldr	r2, [r3, #0]
 800236c:	f042 0240 	orr.w	r2, r2, #64	@ 0x40
 8002370:	601a      	str	r2, [r3, #0]
 8002372:	782a      	ldrb	r2, [r5, #0]
 8002374:	0792      	lsls	r2, r2, #30
 8002376:	d503      	bpl.n	8002380 <USER_SPI_initialize+0x24>
 8002378:	7828      	ldrb	r0, [r5, #0]
 800237a:	b2c0      	uxtb	r0, r0
 800237c:	b003      	add	sp, #12
 800237e:	bdf0      	pop	{r4, r5, r6, r7, pc}
 8002380:	681e      	ldr	r6, [r3, #0]
 8002382:	681a      	ldr	r2, [r3, #0]
 8002384:	f042 0238 	orr.w	r2, r2, #56	@ 0x38
 8002388:	f006 0638 	and.w	r6, r6, #56	@ 0x38
 800238c:	601a      	str	r2, [r3, #0]
 800238e:	240a      	movs	r4, #10
 8002390:	3c01      	subs	r4, #1
 8002392:	f7ff fef5 	bl	8002180 <receive_mmc1>
 8002396:	f014 04ff 	ands.w	r4, r4, #255	@ 0xff
 800239a:	d1f9      	bne.n	8002390 <USER_SPI_initialize+0x34>
 800239c:	683a      	ldr	r2, [r7, #0]
 800239e:	6813      	ldr	r3, [r2, #0]
 80023a0:	f023 0338 	bic.w	r3, r3, #56	@ 0x38
 80023a4:	4333      	orrs	r3, r6
 80023a6:	6013      	str	r3, [r2, #0]
 80023a8:	4621      	mov	r1, r4
 80023aa:	4620      	mov	r0, r4
 80023ac:	f7ff ff57 	bl	800225e <send_cmd>
 80023b0:	2801      	cmp	r0, #1
 80023b2:	4606      	mov	r6, r0
 80023b4:	d007      	beq.n	80023c6 <USER_SPI_initialize+0x6a>
 80023b6:	4b33      	ldr	r3, [pc, #204]	@ (8002484 <USER_SPI_initialize+0x128>)
 80023b8:	2200      	movs	r2, #0
 80023ba:	701a      	strb	r2, [r3, #0]
 80023bc:	2301      	movs	r3, #1
 80023be:	702b      	strb	r3, [r5, #0]
 80023c0:	f7ff ff00 	bl	80021c4 <spi_deselect>
 80023c4:	e7d8      	b.n	8002378 <USER_SPI_initialize+0x1c>
 80023c6:	f44f 71d5 	mov.w	r1, #426	@ 0x1aa
 80023ca:	2008      	movs	r0, #8
 80023cc:	f7ff ff47 	bl	800225e <send_cmd>
 80023d0:	2801      	cmp	r0, #1
 80023d2:	d132      	bne.n	800243a <USER_SPI_initialize+0xde>
 80023d4:	2204      	movs	r2, #4
 80023d6:	eb0d 0102 	add.w	r1, sp, r2
 80023da:	4620      	mov	r0, r4
 80023dc:	f7ff feae 	bl	800213c <HAL_SPI_TransmitReceive_fast>
 80023e0:	f89d 3006 	ldrb.w	r3, [sp, #6]
 80023e4:	2b01      	cmp	r3, #1
 80023e6:	d1e6      	bne.n	80023b6 <USER_SPI_initialize+0x5a>
 80023e8:	f89d 3007 	ldrb.w	r3, [sp, #7]
 80023ec:	2baa      	cmp	r3, #170	@ 0xaa
 80023ee:	d1e2      	bne.n	80023b6 <USER_SPI_initialize+0x5a>
 80023f0:	f44f 747a 	mov.w	r4, #1000	@ 0x3e8
 80023f4:	f04f 4180 	mov.w	r1, #1073741824	@ 0x40000000
 80023f8:	20a9      	movs	r0, #169	@ 0xa9
 80023fa:	f7ff ff30 	bl	800225e <send_cmd>
 80023fe:	b120      	cbz	r0, 800240a <USER_SPI_initialize+0xae>
 8002400:	2001      	movs	r0, #1
 8002402:	f7fe fdf3 	bl	8000fec <HAL_Delay>
 8002406:	3c01      	subs	r4, #1
 8002408:	d1f4      	bne.n	80023f4 <USER_SPI_initialize+0x98>
 800240a:	2100      	movs	r1, #0
 800240c:	203a      	movs	r0, #58	@ 0x3a
 800240e:	f7ff ff26 	bl	800225e <send_cmd>
 8002412:	2800      	cmp	r0, #0
 8002414:	d1cf      	bne.n	80023b6 <USER_SPI_initialize+0x5a>
 8002416:	2204      	movs	r2, #4
 8002418:	eb0d 0102 	add.w	r1, sp, r2
 800241c:	f7ff fe8e 	bl	800213c <HAL_SPI_TransmitReceive_fast>
 8002420:	f89d 3004 	ldrb.w	r3, [sp, #4]
 8002424:	f013 0f40 	tst.w	r3, #64	@ 0x40
 8002428:	bf0c      	ite	eq
 800242a:	2604      	moveq	r6, #4
 800242c:	260c      	movne	r6, #12
 800242e:	4b15      	ldr	r3, [pc, #84]	@ (8002484 <USER_SPI_initialize+0x128>)
 8002430:	701e      	strb	r6, [r3, #0]
 8002432:	782b      	ldrb	r3, [r5, #0]
 8002434:	f003 03fe 	and.w	r3, r3, #254	@ 0xfe
 8002438:	e7c1      	b.n	80023be <USER_SPI_initialize+0x62>
 800243a:	4621      	mov	r1, r4
 800243c:	20a9      	movs	r0, #169	@ 0xa9
 800243e:	f7ff ff0e 	bl	800225e <send_cmd>
 8002442:	2801      	cmp	r0, #1
 8002444:	bf8e      	itee	hi
 8002446:	2701      	movhi	r7, #1
 8002448:	27a9      	movls	r7, #169	@ 0xa9
 800244a:	2602      	movls	r6, #2
 800244c:	f44f 747a 	mov.w	r4, #1000	@ 0x3e8
 8002450:	2100      	movs	r1, #0
 8002452:	4638      	mov	r0, r7
 8002454:	f7ff ff03 	bl	800225e <send_cmd>
 8002458:	b138      	cbz	r0, 800246a <USER_SPI_initialize+0x10e>
 800245a:	2001      	movs	r0, #1
 800245c:	f7fe fdc6 	bl	8000fec <HAL_Delay>
 8002460:	3c01      	subs	r4, #1
 8002462:	d1f5      	bne.n	8002450 <USER_SPI_initialize+0xf4>
 8002464:	e7a7      	b.n	80023b6 <USER_SPI_initialize+0x5a>
 8002466:	2001      	movs	r0, #1
 8002468:	e788      	b.n	800237c <USER_SPI_initialize+0x20>
 800246a:	f44f 7100 	mov.w	r1, #512	@ 0x200
 800246e:	2010      	movs	r0, #16
 8002470:	f7ff fef5 	bl	800225e <send_cmd>
 8002474:	2800      	cmp	r0, #0
 8002476:	d19e      	bne.n	80023b6 <USER_SPI_initialize+0x5a>
 8002478:	e7d9      	b.n	800242e <USER_SPI_initialize+0xd2>
 800247a:	bf00      	nop
 800247c:	20001528 	.word	0x20001528
 8002480:	20000020 	.word	0x20000020
 8002484:	200015ca 	.word	0x200015ca

08002488 <USER_SPI_read>:
 8002488:	b538      	push	{r3, r4, r5, lr}
 800248a:	460d      	mov	r5, r1
 800248c:	461c      	mov	r4, r3
 800248e:	4611      	mov	r1, r2
 8002490:	bb88      	cbnz	r0, 80024f6 <USER_SPI_read+0x6e>
 8002492:	b383      	cbz	r3, 80024f6 <USER_SPI_read+0x6e>
 8002494:	4b1a      	ldr	r3, [pc, #104]	@ (8002500 <USER_SPI_read+0x78>)
 8002496:	781b      	ldrb	r3, [r3, #0]
 8002498:	07da      	lsls	r2, r3, #31
 800249a:	d42e      	bmi.n	80024fa <USER_SPI_read+0x72>
 800249c:	4b19      	ldr	r3, [pc, #100]	@ (8002504 <USER_SPI_read+0x7c>)
 800249e:	781b      	ldrb	r3, [r3, #0]
 80024a0:	071b      	lsls	r3, r3, #28
 80024a2:	bf58      	it	pl
 80024a4:	0249      	lslpl	r1, r1, #9
 80024a6:	2c01      	cmp	r4, #1
 80024a8:	d111      	bne.n	80024ce <USER_SPI_read+0x46>
 80024aa:	2011      	movs	r0, #17
 80024ac:	f7ff fed7 	bl	800225e <send_cmd>
 80024b0:	b938      	cbnz	r0, 80024c2 <USER_SPI_read+0x3a>
 80024b2:	f44f 7100 	mov.w	r1, #512	@ 0x200
 80024b6:	4628      	mov	r0, r5
 80024b8:	f7ff feaa 	bl	8002210 <receive_datablock>
 80024bc:	fab0 f480 	clz	r4, r0
 80024c0:	0964      	lsrs	r4, r4, #5
 80024c2:	f7ff fe7f 	bl	80021c4 <spi_deselect>
 80024c6:	1e20      	subs	r0, r4, #0
 80024c8:	bf18      	it	ne
 80024ca:	2001      	movne	r0, #1
 80024cc:	bd38      	pop	{r3, r4, r5, pc}
 80024ce:	2012      	movs	r0, #18
 80024d0:	f7ff fec5 	bl	800225e <send_cmd>
 80024d4:	2800      	cmp	r0, #0
 80024d6:	d1f4      	bne.n	80024c2 <USER_SPI_read+0x3a>
 80024d8:	f44f 7100 	mov.w	r1, #512	@ 0x200
 80024dc:	4628      	mov	r0, r5
 80024de:	f7ff fe97 	bl	8002210 <receive_datablock>
 80024e2:	b118      	cbz	r0, 80024ec <USER_SPI_read+0x64>
 80024e4:	3c01      	subs	r4, #1
 80024e6:	f505 7500 	add.w	r5, r5, #512	@ 0x200
 80024ea:	d1f5      	bne.n	80024d8 <USER_SPI_read+0x50>
 80024ec:	2100      	movs	r1, #0
 80024ee:	200c      	movs	r0, #12
 80024f0:	f7ff feb5 	bl	800225e <send_cmd>
 80024f4:	e7e5      	b.n	80024c2 <USER_SPI_read+0x3a>
 80024f6:	2004      	movs	r0, #4
 80024f8:	e7e8      	b.n	80024cc <USER_SPI_read+0x44>
 80024fa:	2003      	movs	r0, #3
 80024fc:	e7e6      	b.n	80024cc <USER_SPI_read+0x44>
 80024fe:	bf00      	nop
 8002500:	20000020 	.word	0x20000020
 8002504:	200015ca 	.word	0x200015ca

08002508 <USER_SPI_write>:
 8002508:	b570      	push	{r4, r5, r6, lr}
 800250a:	460e      	mov	r6, r1
 800250c:	4615      	mov	r5, r2
 800250e:	461c      	mov	r4, r3
 8002510:	2800      	cmp	r0, #0
 8002512:	d13f      	bne.n	8002594 <USER_SPI_write+0x8c>
 8002514:	2b00      	cmp	r3, #0
 8002516:	d03d      	beq.n	8002594 <USER_SPI_write+0x8c>
 8002518:	4b21      	ldr	r3, [pc, #132]	@ (80025a0 <USER_SPI_write+0x98>)
 800251a:	781a      	ldrb	r2, [r3, #0]
 800251c:	07d0      	lsls	r0, r2, #31
 800251e:	d43b      	bmi.n	8002598 <USER_SPI_write+0x90>
 8002520:	781b      	ldrb	r3, [r3, #0]
 8002522:	0759      	lsls	r1, r3, #29
 8002524:	d43a      	bmi.n	800259c <USER_SPI_write+0x94>
 8002526:	4b1f      	ldr	r3, [pc, #124]	@ (80025a4 <USER_SPI_write+0x9c>)
 8002528:	781b      	ldrb	r3, [r3, #0]
 800252a:	071a      	lsls	r2, r3, #28
 800252c:	bf58      	it	pl
 800252e:	026d      	lslpl	r5, r5, #9
 8002530:	2c01      	cmp	r4, #1
 8002532:	d111      	bne.n	8002558 <USER_SPI_write+0x50>
 8002534:	4629      	mov	r1, r5
 8002536:	2018      	movs	r0, #24
 8002538:	f7ff fe91 	bl	800225e <send_cmd>
 800253c:	bb40      	cbnz	r0, 8002590 <USER_SPI_write+0x88>
 800253e:	21fe      	movs	r1, #254	@ 0xfe
 8002540:	4630      	mov	r0, r6
 8002542:	f7ff fecc 	bl	80022de <transmit_datablock>
 8002546:	fab0 f480 	clz	r4, r0
 800254a:	0964      	lsrs	r4, r4, #5
 800254c:	f7ff fe3a 	bl	80021c4 <spi_deselect>
 8002550:	1e20      	subs	r0, r4, #0
 8002552:	bf18      	it	ne
 8002554:	2001      	movne	r0, #1
 8002556:	bd70      	pop	{r4, r5, r6, pc}
 8002558:	f013 0f06 	tst.w	r3, #6
 800255c:	d003      	beq.n	8002566 <USER_SPI_write+0x5e>
 800255e:	4621      	mov	r1, r4
 8002560:	2097      	movs	r0, #151	@ 0x97
 8002562:	f7ff fe7c 	bl	800225e <send_cmd>
 8002566:	4629      	mov	r1, r5
 8002568:	2019      	movs	r0, #25
 800256a:	f7ff fe78 	bl	800225e <send_cmd>
 800256e:	2800      	cmp	r0, #0
 8002570:	d1ec      	bne.n	800254c <USER_SPI_write+0x44>
 8002572:	21fc      	movs	r1, #252	@ 0xfc
 8002574:	4630      	mov	r0, r6
 8002576:	f7ff feb2 	bl	80022de <transmit_datablock>
 800257a:	b118      	cbz	r0, 8002584 <USER_SPI_write+0x7c>
 800257c:	3c01      	subs	r4, #1
 800257e:	f506 7600 	add.w	r6, r6, #512	@ 0x200
 8002582:	d1f6      	bne.n	8002572 <USER_SPI_write+0x6a>
 8002584:	21fd      	movs	r1, #253	@ 0xfd
 8002586:	2000      	movs	r0, #0
 8002588:	f7ff fea9 	bl	80022de <transmit_datablock>
 800258c:	2800      	cmp	r0, #0
 800258e:	d1dd      	bne.n	800254c <USER_SPI_write+0x44>
 8002590:	2401      	movs	r4, #1
 8002592:	e7db      	b.n	800254c <USER_SPI_write+0x44>
 8002594:	2004      	movs	r0, #4
 8002596:	e7de      	b.n	8002556 <USER_SPI_write+0x4e>
 8002598:	2003      	movs	r0, #3
 800259a:	e7dc      	b.n	8002556 <USER_SPI_write+0x4e>
 800259c:	2002      	movs	r0, #2
 800259e:	e7da      	b.n	8002556 <USER_SPI_write+0x4e>
 80025a0:	20000020 	.word	0x20000020
 80025a4:	200015ca 	.word	0x200015ca

080025a8 <USER_SPI_ioctl>:
 80025a8:	b57f      	push	{r0, r1, r2, r3, r4, r5, r6, lr}
 80025aa:	4615      	mov	r5, r2
 80025ac:	2800      	cmp	r0, #0
 80025ae:	f040 80d8 	bne.w	8002762 <USER_SPI_ioctl+0x1ba>
 80025b2:	4b6e      	ldr	r3, [pc, #440]	@ (800276c <USER_SPI_ioctl+0x1c4>)
 80025b4:	781c      	ldrb	r4, [r3, #0]
 80025b6:	f014 0401 	ands.w	r4, r4, #1
 80025ba:	f040 80d4 	bne.w	8002766 <USER_SPI_ioctl+0x1be>
 80025be:	2904      	cmp	r1, #4
 80025c0:	f200 80cd 	bhi.w	800275e <USER_SPI_ioctl+0x1b6>
 80025c4:	e8df f001 	tbb	[pc, r1]
 80025c8:	4acb0903 	.word	0x4acb0903
 80025cc:	91          	.byte	0x91
 80025cd:	00          	.byte	0x00
 80025ce:	f7ff fe07 	bl	80021e0 <spi_select>
 80025d2:	fab0 f480 	clz	r4, r0
 80025d6:	0964      	lsrs	r4, r4, #5
 80025d8:	e005      	b.n	80025e6 <USER_SPI_ioctl+0x3e>
 80025da:	2100      	movs	r1, #0
 80025dc:	2009      	movs	r0, #9
 80025de:	f7ff fe3e 	bl	800225e <send_cmd>
 80025e2:	b128      	cbz	r0, 80025f0 <USER_SPI_ioctl+0x48>
 80025e4:	2401      	movs	r4, #1
 80025e6:	f7ff fded 	bl	80021c4 <spi_deselect>
 80025ea:	4620      	mov	r0, r4
 80025ec:	b004      	add	sp, #16
 80025ee:	bd70      	pop	{r4, r5, r6, pc}
 80025f0:	2110      	movs	r1, #16
 80025f2:	4668      	mov	r0, sp
 80025f4:	f7ff fe0c 	bl	8002210 <receive_datablock>
 80025f8:	2800      	cmp	r0, #0
 80025fa:	d0f3      	beq.n	80025e4 <USER_SPI_ioctl+0x3c>
 80025fc:	f89d 2000 	ldrb.w	r2, [sp]
 8002600:	f89d 3007 	ldrb.w	r3, [sp, #7]
 8002604:	0992      	lsrs	r2, r2, #6
 8002606:	2a01      	cmp	r2, #1
 8002608:	d10b      	bne.n	8002622 <USER_SPI_ioctl+0x7a>
 800260a:	f8bd 2008 	ldrh.w	r2, [sp, #8]
 800260e:	041b      	lsls	r3, r3, #16
 8002610:	ba52      	rev16	r2, r2
 8002612:	f403 137c 	and.w	r3, r3, #4128768	@ 0x3f0000
 8002616:	fa13 f382 	uxtah	r3, r3, r2
 800261a:	3301      	adds	r3, #1
 800261c:	029b      	lsls	r3, r3, #10
 800261e:	602b      	str	r3, [r5, #0]
 8002620:	e7e1      	b.n	80025e6 <USER_SPI_ioctl+0x3e>
 8002622:	f89d 2008 	ldrb.w	r2, [sp, #8]
 8002626:	f89d 100a 	ldrb.w	r1, [sp, #10]
 800262a:	009b      	lsls	r3, r3, #2
 800262c:	eb03 1392 	add.w	r3, r3, r2, lsr #6
 8002630:	f89d 2006 	ldrb.w	r2, [sp, #6]
 8002634:	0292      	lsls	r2, r2, #10
 8002636:	f402 6240 	and.w	r2, r2, #3072	@ 0xc00
 800263a:	4413      	add	r3, r2
 800263c:	f89d 2005 	ldrb.w	r2, [sp, #5]
 8002640:	f002 020f 	and.w	r2, r2, #15
 8002644:	eb02 12d1 	add.w	r2, r2, r1, lsr #7
 8002648:	f89d 1009 	ldrb.w	r1, [sp, #9]
 800264c:	0049      	lsls	r1, r1, #1
 800264e:	f001 0106 	and.w	r1, r1, #6
 8002652:	440a      	add	r2, r1
 8002654:	3301      	adds	r3, #1
 8002656:	3a07      	subs	r2, #7
 8002658:	4093      	lsls	r3, r2
 800265a:	e7e0      	b.n	800261e <USER_SPI_ioctl+0x76>
 800265c:	4e44      	ldr	r6, [pc, #272]	@ (8002770 <USER_SPI_ioctl+0x1c8>)
 800265e:	7831      	ldrb	r1, [r6, #0]
 8002660:	f011 0104 	ands.w	r1, r1, #4
 8002664:	d019      	beq.n	800269a <USER_SPI_ioctl+0xf2>
 8002666:	2100      	movs	r1, #0
 8002668:	208d      	movs	r0, #141	@ 0x8d
 800266a:	f7ff fdf8 	bl	800225e <send_cmd>
 800266e:	2800      	cmp	r0, #0
 8002670:	d1b8      	bne.n	80025e4 <USER_SPI_ioctl+0x3c>
 8002672:	f7ff fd85 	bl	8002180 <receive_mmc1>
 8002676:	2110      	movs	r1, #16
 8002678:	4668      	mov	r0, sp
 800267a:	f7ff fdc9 	bl	8002210 <receive_datablock>
 800267e:	2800      	cmp	r0, #0
 8002680:	d0b0      	beq.n	80025e4 <USER_SPI_ioctl+0x3c>
 8002682:	2630      	movs	r6, #48	@ 0x30
 8002684:	3e01      	subs	r6, #1
 8002686:	f7ff fd7b 	bl	8002180 <receive_mmc1>
 800268a:	f016 06ff 	ands.w	r6, r6, #255	@ 0xff
 800268e:	d1f9      	bne.n	8002684 <USER_SPI_ioctl+0xdc>
 8002690:	f89d 200a 	ldrb.w	r2, [sp, #10]
 8002694:	2310      	movs	r3, #16
 8002696:	0912      	lsrs	r2, r2, #4
 8002698:	e7de      	b.n	8002658 <USER_SPI_ioctl+0xb0>
 800269a:	2009      	movs	r0, #9
 800269c:	f7ff fddf 	bl	800225e <send_cmd>
 80026a0:	2800      	cmp	r0, #0
 80026a2:	d19f      	bne.n	80025e4 <USER_SPI_ioctl+0x3c>
 80026a4:	2110      	movs	r1, #16
 80026a6:	4668      	mov	r0, sp
 80026a8:	f7ff fdb2 	bl	8002210 <receive_datablock>
 80026ac:	2800      	cmp	r0, #0
 80026ae:	d099      	beq.n	80025e4 <USER_SPI_ioctl+0x3c>
 80026b0:	7832      	ldrb	r2, [r6, #0]
 80026b2:	f89d 300a 	ldrb.w	r3, [sp, #10]
 80026b6:	f89d 100b 	ldrb.w	r1, [sp, #11]
 80026ba:	0792      	lsls	r2, r2, #30
 80026bc:	d50a      	bpl.n	80026d4 <USER_SPI_ioctl+0x12c>
 80026be:	f89d 200d 	ldrb.w	r2, [sp, #13]
 80026c2:	005b      	lsls	r3, r3, #1
 80026c4:	f003 037e 	and.w	r3, r3, #126	@ 0x7e
 80026c8:	eb03 13d1 	add.w	r3, r3, r1, lsr #7
 80026cc:	0992      	lsrs	r2, r2, #6
 80026ce:	3301      	adds	r3, #1
 80026d0:	3a01      	subs	r2, #1
 80026d2:	e7c1      	b.n	8002658 <USER_SPI_ioctl+0xb0>
 80026d4:	00ca      	lsls	r2, r1, #3
 80026d6:	f002 0218 	and.w	r2, r2, #24
 80026da:	f3c3 0384 	ubfx	r3, r3, #2, #5
 80026de:	eb02 1251 	add.w	r2, r2, r1, lsr #5
 80026e2:	3301      	adds	r3, #1
 80026e4:	fb02 3303 	mla	r3, r2, r3, r3
 80026e8:	e799      	b.n	800261e <USER_SPI_ioctl+0x76>
 80026ea:	4e21      	ldr	r6, [pc, #132]	@ (8002770 <USER_SPI_ioctl+0x1c8>)
 80026ec:	7833      	ldrb	r3, [r6, #0]
 80026ee:	f013 0f06 	tst.w	r3, #6
 80026f2:	f43f af77 	beq.w	80025e4 <USER_SPI_ioctl+0x3c>
 80026f6:	466a      	mov	r2, sp
 80026f8:	210b      	movs	r1, #11
 80026fa:	2000      	movs	r0, #0
 80026fc:	f7ff ff54 	bl	80025a8 <USER_SPI_ioctl>
 8002700:	2800      	cmp	r0, #0
 8002702:	f47f af6f 	bne.w	80025e4 <USER_SPI_ioctl+0x3c>
 8002706:	f89d 300a 	ldrb.w	r3, [sp, #10]
 800270a:	f89d 2000 	ldrb.w	r2, [sp]
 800270e:	f003 0340 	and.w	r3, r3, #64	@ 0x40
 8002712:	ea53 1392 	orrs.w	r3, r3, r2, lsr #6
 8002716:	f43f af65 	beq.w	80025e4 <USER_SPI_ioctl+0x3c>
 800271a:	e9d5 1400 	ldrd	r1, r4, [r5]
 800271e:	7833      	ldrb	r3, [r6, #0]
 8002720:	071b      	lsls	r3, r3, #28
 8002722:	bf58      	it	pl
 8002724:	0249      	lslpl	r1, r1, #9
 8002726:	f04f 0020 	mov.w	r0, #32
 800272a:	bf58      	it	pl
 800272c:	0264      	lslpl	r4, r4, #9
 800272e:	f7ff fd96 	bl	800225e <send_cmd>
 8002732:	2800      	cmp	r0, #0
 8002734:	f47f af56 	bne.w	80025e4 <USER_SPI_ioctl+0x3c>
 8002738:	4621      	mov	r1, r4
 800273a:	2021      	movs	r0, #33	@ 0x21
 800273c:	f7ff fd8f 	bl	800225e <send_cmd>
 8002740:	4601      	mov	r1, r0
 8002742:	2800      	cmp	r0, #0
 8002744:	f47f af4e 	bne.w	80025e4 <USER_SPI_ioctl+0x3c>
 8002748:	2026      	movs	r0, #38	@ 0x26
 800274a:	f7ff fd88 	bl	800225e <send_cmd>
 800274e:	2800      	cmp	r0, #0
 8002750:	f47f af48 	bne.w	80025e4 <USER_SPI_ioctl+0x3c>
 8002754:	f644 6020 	movw	r0, #20000	@ 0x4e20
 8002758:	f7ff fd1e 	bl	8002198 <wait_ready>
 800275c:	e739      	b.n	80025d2 <USER_SPI_ioctl+0x2a>
 800275e:	2404      	movs	r4, #4
 8002760:	e741      	b.n	80025e6 <USER_SPI_ioctl+0x3e>
 8002762:	2404      	movs	r4, #4
 8002764:	e741      	b.n	80025ea <USER_SPI_ioctl+0x42>
 8002766:	2403      	movs	r4, #3
 8002768:	e73f      	b.n	80025ea <USER_SPI_ioctl+0x42>
 800276a:	bf00      	nop
 800276c:	20000020 	.word	0x20000020
 8002770:	200015ca 	.word	0x200015ca

08002774 <disk_status>:
 8002774:	4b03      	ldr	r3, [pc, #12]	@ (8002784 <disk_status+0x10>)
 8002776:	181a      	adds	r2, r3, r0
 8002778:	eb03 0380 	add.w	r3, r3, r0, lsl #2
 800277c:	7a10      	ldrb	r0, [r2, #8]
 800277e:	685b      	ldr	r3, [r3, #4]
 8002780:	685b      	ldr	r3, [r3, #4]
 8002782:	4718      	bx	r3
 8002784:	20001a54 	.word	0x20001a54

08002788 <disk_initialize>:
 8002788:	b538      	push	{r3, r4, r5, lr}
 800278a:	4d08      	ldr	r5, [pc, #32]	@ (80027ac <disk_initialize+0x24>)
 800278c:	5c2b      	ldrb	r3, [r5, r0]
 800278e:	4604      	mov	r4, r0
 8002790:	b953      	cbnz	r3, 80027a8 <disk_initialize+0x20>
 8002792:	eb05 0280 	add.w	r2, r5, r0, lsl #2
 8002796:	182b      	adds	r3, r5, r0
 8002798:	6852      	ldr	r2, [r2, #4]
 800279a:	7a18      	ldrb	r0, [r3, #8]
 800279c:	6812      	ldr	r2, [r2, #0]
 800279e:	4790      	blx	r2
 80027a0:	b908      	cbnz	r0, 80027a6 <disk_initialize+0x1e>
 80027a2:	2301      	movs	r3, #1
 80027a4:	552b      	strb	r3, [r5, r4]
 80027a6:	bd38      	pop	{r3, r4, r5, pc}
 80027a8:	2000      	movs	r0, #0
 80027aa:	e7fc      	b.n	80027a6 <disk_initialize+0x1e>
 80027ac:	20001a54 	.word	0x20001a54

080027b0 <disk_read>:
 80027b0:	b430      	push	{r4, r5}
 80027b2:	4c05      	ldr	r4, [pc, #20]	@ (80027c8 <disk_read+0x18>)
 80027b4:	1825      	adds	r5, r4, r0
 80027b6:	eb04 0480 	add.w	r4, r4, r0, lsl #2
 80027ba:	6860      	ldr	r0, [r4, #4]
 80027bc:	6884      	ldr	r4, [r0, #8]
 80027be:	7a28      	ldrb	r0, [r5, #8]
 80027c0:	46a4      	mov	ip, r4
 80027c2:	bc30      	pop	{r4, r5}
 80027c4:	4760      	bx	ip
 80027c6:	bf00      	nop
 80027c8:	20001a54 	.word	0x20001a54

080027cc <disk_write>:
 80027cc:	b430      	push	{r4, r5}
 80027ce:	4c05      	ldr	r4, [pc, #20]	@ (80027e4 <disk_write+0x18>)
 80027d0:	1825      	adds	r5, r4, r0
 80027d2:	eb04 0480 	add.w	r4, r4, r0, lsl #2
 80027d6:	6860      	ldr	r0, [r4, #4]
 80027d8:	68c4      	ldr	r4, [r0, #12]
 80027da:	7a28      	ldrb	r0, [r5, #8]
 80027dc:	46a4      	mov	ip, r4
 80027de:	bc30      	pop	{r4, r5}
 80027e0:	4760      	bx	ip
 80027e2:	bf00      	nop
 80027e4:	20001a54 	.word	0x20001a54

080027e8 <disk_ioctl>:
 80027e8:	4b05      	ldr	r3, [pc, #20]	@ (8002800 <disk_ioctl+0x18>)
 80027ea:	b410      	push	{r4}
 80027ec:	181c      	adds	r4, r3, r0
 80027ee:	eb03 0380 	add.w	r3, r3, r0, lsl #2
 80027f2:	7a20      	ldrb	r0, [r4, #8]
 80027f4:	685b      	ldr	r3, [r3, #4]
 80027f6:	f85d 4b04 	ldr.w	r4, [sp], #4
 80027fa:	691b      	ldr	r3, [r3, #16]
 80027fc:	4718      	bx	r3
 80027fe:	bf00      	nop
 8002800:	20001a54 	.word	0x20001a54

08002804 <ld_dword>:
 8002804:	6800      	ldr	r0, [r0, #0]
 8002806:	4770      	bx	lr

08002808 <ld_qword>:
 8002808:	4603      	mov	r3, r0
 800280a:	6800      	ldr	r0, [r0, #0]
 800280c:	6859      	ldr	r1, [r3, #4]
 800280e:	4770      	bx	lr

08002810 <st_dword>:
 8002810:	0a0b      	lsrs	r3, r1, #8
 8002812:	7001      	strb	r1, [r0, #0]
 8002814:	7043      	strb	r3, [r0, #1]
 8002816:	0c0b      	lsrs	r3, r1, #16
 8002818:	0e09      	lsrs	r1, r1, #24
 800281a:	7083      	strb	r3, [r0, #2]
 800281c:	70c1      	strb	r1, [r0, #3]
 800281e:	4770      	bx	lr

08002820 <st_qword>:
 8002820:	0a11      	lsrs	r1, r2, #8
 8002822:	7002      	strb	r2, [r0, #0]
 8002824:	7041      	strb	r1, [r0, #1]
 8002826:	0c11      	lsrs	r1, r2, #16
 8002828:	0e12      	lsrs	r2, r2, #24
 800282a:	70c2      	strb	r2, [r0, #3]
 800282c:	0a1a      	lsrs	r2, r3, #8
 800282e:	7103      	strb	r3, [r0, #4]
 8002830:	7142      	strb	r2, [r0, #5]
 8002832:	0c1a      	lsrs	r2, r3, #16
 8002834:	0e1b      	lsrs	r3, r3, #24
 8002836:	7081      	strb	r1, [r0, #2]
 8002838:	7182      	strb	r2, [r0, #6]
 800283a:	71c3      	strb	r3, [r0, #7]
 800283c:	4770      	bx	lr

0800283e <mem_set>:
 800283e:	4402      	add	r2, r0
 8002840:	f800 1b01 	strb.w	r1, [r0], #1
 8002844:	4290      	cmp	r0, r2
 8002846:	d1fb      	bne.n	8002840 <mem_set+0x2>
 8002848:	4770      	bx	lr
	...

0800284c <chk_lock>:
 800284c:	4b1b      	ldr	r3, [pc, #108]	@ (80028bc <chk_lock+0x70>)
 800284e:	4602      	mov	r2, r0
 8002850:	6818      	ldr	r0, [r3, #0]
 8002852:	b530      	push	{r4, r5, lr}
 8002854:	b160      	cbz	r0, 8002870 <chk_lock+0x24>
 8002856:	6814      	ldr	r4, [r2, #0]
 8002858:	42a0      	cmp	r0, r4
 800285a:	d107      	bne.n	800286c <chk_lock+0x20>
 800285c:	685c      	ldr	r4, [r3, #4]
 800285e:	6890      	ldr	r0, [r2, #8]
 8002860:	4284      	cmp	r4, r0
 8002862:	d103      	bne.n	800286c <chk_lock+0x20>
 8002864:	689c      	ldr	r4, [r3, #8]
 8002866:	6b10      	ldr	r0, [r2, #48]	@ 0x30
 8002868:	4284      	cmp	r4, r0
 800286a:	d012      	beq.n	8002892 <chk_lock+0x46>
 800286c:	2400      	movs	r4, #0
 800286e:	e000      	b.n	8002872 <chk_lock+0x26>
 8002870:	2401      	movs	r4, #1
 8002872:	6918      	ldr	r0, [r3, #16]
 8002874:	b1b8      	cbz	r0, 80028a6 <chk_lock+0x5a>
 8002876:	6815      	ldr	r5, [r2, #0]
 8002878:	42a8      	cmp	r0, r5
 800287a:	d107      	bne.n	800288c <chk_lock+0x40>
 800287c:	695d      	ldr	r5, [r3, #20]
 800287e:	6890      	ldr	r0, [r2, #8]
 8002880:	4285      	cmp	r5, r0
 8002882:	d103      	bne.n	800288c <chk_lock+0x40>
 8002884:	6998      	ldr	r0, [r3, #24]
 8002886:	6b12      	ldr	r2, [r2, #48]	@ 0x30
 8002888:	4290      	cmp	r0, r2
 800288a:	d006      	beq.n	800289a <chk_lock+0x4e>
 800288c:	b13c      	cbz	r4, 800289e <chk_lock+0x52>
 800288e:	2000      	movs	r0, #0
 8002890:	e009      	b.n	80028a6 <chk_lock+0x5a>
 8002892:	2200      	movs	r2, #0
 8002894:	b141      	cbz	r1, 80028a8 <chk_lock+0x5c>
 8002896:	2010      	movs	r0, #16
 8002898:	e005      	b.n	80028a6 <chk_lock+0x5a>
 800289a:	2201      	movs	r2, #1
 800289c:	e7fa      	b.n	8002894 <chk_lock+0x48>
 800289e:	2902      	cmp	r1, #2
 80028a0:	bf0c      	ite	eq
 80028a2:	2000      	moveq	r0, #0
 80028a4:	2012      	movne	r0, #18
 80028a6:	bd30      	pop	{r4, r5, pc}
 80028a8:	eb03 1302 	add.w	r3, r3, r2, lsl #4
 80028ac:	8998      	ldrh	r0, [r3, #12]
 80028ae:	f5a0 7380 	sub.w	r3, r0, #256	@ 0x100
 80028b2:	4258      	negs	r0, r3
 80028b4:	4158      	adcs	r0, r3
 80028b6:	0100      	lsls	r0, r0, #4
 80028b8:	e7f5      	b.n	80028a6 <chk_lock+0x5a>
 80028ba:	bf00      	nop
 80028bc:	20001a2c 	.word	0x20001a2c

080028c0 <inc_lock>:
 80028c0:	4a1f      	ldr	r2, [pc, #124]	@ (8002940 <inc_lock+0x80>)
 80028c2:	b5f0      	push	{r4, r5, r6, r7, lr}
 80028c4:	6813      	ldr	r3, [r2, #0]
 80028c6:	6806      	ldr	r6, [r0, #0]
 80028c8:	429e      	cmp	r6, r3
 80028ca:	d107      	bne.n	80028dc <inc_lock+0x1c>
 80028cc:	6855      	ldr	r5, [r2, #4]
 80028ce:	6884      	ldr	r4, [r0, #8]
 80028d0:	42a5      	cmp	r5, r4
 80028d2:	d103      	bne.n	80028dc <inc_lock+0x1c>
 80028d4:	6895      	ldr	r5, [r2, #8]
 80028d6:	6b04      	ldr	r4, [r0, #48]	@ 0x30
 80028d8:	42a5      	cmp	r5, r4
 80028da:	d019      	beq.n	8002910 <inc_lock+0x50>
 80028dc:	6914      	ldr	r4, [r2, #16]
 80028de:	42b4      	cmp	r4, r6
 80028e0:	d118      	bne.n	8002914 <inc_lock+0x54>
 80028e2:	6957      	ldr	r7, [r2, #20]
 80028e4:	6885      	ldr	r5, [r0, #8]
 80028e6:	42af      	cmp	r7, r5
 80028e8:	d114      	bne.n	8002914 <inc_lock+0x54>
 80028ea:	6997      	ldr	r7, [r2, #24]
 80028ec:	6b05      	ldr	r5, [r0, #48]	@ 0x30
 80028ee:	42af      	cmp	r7, r5
 80028f0:	d110      	bne.n	8002914 <inc_lock+0x54>
 80028f2:	2301      	movs	r3, #1
 80028f4:	eb02 1003 	add.w	r0, r2, r3, lsl #4
 80028f8:	8980      	ldrh	r0, [r0, #12]
 80028fa:	b9e9      	cbnz	r1, 8002938 <inc_lock+0x78>
 80028fc:	eb02 1103 	add.w	r1, r2, r3, lsl #4
 8002900:	8989      	ldrh	r1, [r1, #12]
 8002902:	3101      	adds	r1, #1
 8002904:	b289      	uxth	r1, r1
 8002906:	eb02 1203 	add.w	r2, r2, r3, lsl #4
 800290a:	1c58      	adds	r0, r3, #1
 800290c:	8191      	strh	r1, [r2, #12]
 800290e:	bdf0      	pop	{r4, r5, r6, r7, pc}
 8002910:	2300      	movs	r3, #0
 8002912:	e7ef      	b.n	80028f4 <inc_lock+0x34>
 8002914:	b10b      	cbz	r3, 800291a <inc_lock+0x5a>
 8002916:	b98c      	cbnz	r4, 800293c <inc_lock+0x7c>
 8002918:	2301      	movs	r3, #1
 800291a:	011d      	lsls	r5, r3, #4
 800291c:	eb02 1403 	add.w	r4, r2, r3, lsl #4
 8002920:	5156      	str	r6, [r2, r5]
 8002922:	6885      	ldr	r5, [r0, #8]
 8002924:	6b00      	ldr	r0, [r0, #48]	@ 0x30
 8002926:	60a0      	str	r0, [r4, #8]
 8002928:	2000      	movs	r0, #0
 800292a:	6065      	str	r5, [r4, #4]
 800292c:	81a0      	strh	r0, [r4, #12]
 800292e:	2900      	cmp	r1, #0
 8002930:	d0e4      	beq.n	80028fc <inc_lock+0x3c>
 8002932:	f44f 7180 	mov.w	r1, #256	@ 0x100
 8002936:	e7e6      	b.n	8002906 <inc_lock+0x46>
 8002938:	2800      	cmp	r0, #0
 800293a:	d0fa      	beq.n	8002932 <inc_lock+0x72>
 800293c:	2000      	movs	r0, #0
 800293e:	e7e6      	b.n	800290e <inc_lock+0x4e>
 8002940:	20001a2c 	.word	0x20001a2c

08002944 <dec_lock>:
 8002944:	3801      	subs	r0, #1
 8002946:	2801      	cmp	r0, #1
 8002948:	d815      	bhi.n	8002976 <dec_lock+0x32>
 800294a:	4a0c      	ldr	r2, [pc, #48]	@ (800297c <dec_lock+0x38>)
 800294c:	0101      	lsls	r1, r0, #4
 800294e:	eb02 1000 	add.w	r0, r2, r0, lsl #4
 8002952:	8983      	ldrh	r3, [r0, #12]
 8002954:	f5b3 7f80 	cmp.w	r3, #256	@ 0x100
 8002958:	d104      	bne.n	8002964 <dec_lock+0x20>
 800295a:	2300      	movs	r3, #0
 800295c:	8183      	strh	r3, [r0, #12]
 800295e:	2300      	movs	r3, #0
 8002960:	5053      	str	r3, [r2, r1]
 8002962:	e006      	b.n	8002972 <dec_lock+0x2e>
 8002964:	2b00      	cmp	r3, #0
 8002966:	d0fa      	beq.n	800295e <dec_lock+0x1a>
 8002968:	3b01      	subs	r3, #1
 800296a:	b29b      	uxth	r3, r3
 800296c:	8183      	strh	r3, [r0, #12]
 800296e:	2b00      	cmp	r3, #0
 8002970:	d0f5      	beq.n	800295e <dec_lock+0x1a>
 8002972:	2000      	movs	r0, #0
 8002974:	4770      	bx	lr
 8002976:	2002      	movs	r0, #2
 8002978:	4770      	bx	lr
 800297a:	bf00      	nop
 800297c:	20001a2c 	.word	0x20001a2c

08002980 <clear_lock>:
 8002980:	4b05      	ldr	r3, [pc, #20]	@ (8002998 <clear_lock+0x18>)
 8002982:	681a      	ldr	r2, [r3, #0]
 8002984:	4290      	cmp	r0, r2
 8002986:	bf04      	itt	eq
 8002988:	2200      	moveq	r2, #0
 800298a:	601a      	streq	r2, [r3, #0]
 800298c:	691a      	ldr	r2, [r3, #16]
 800298e:	4290      	cmp	r0, r2
 8002990:	bf04      	itt	eq
 8002992:	2200      	moveq	r2, #0
 8002994:	611a      	streq	r2, [r3, #16]
 8002996:	4770      	bx	lr
 8002998:	20001a2c 	.word	0x20001a2c

0800299c <clust2sect>:
 800299c:	69c3      	ldr	r3, [r0, #28]
 800299e:	3902      	subs	r1, #2
 80029a0:	3b02      	subs	r3, #2
 80029a2:	428b      	cmp	r3, r1
 80029a4:	bf83      	ittte	hi
 80029a6:	8943      	ldrhhi	r3, [r0, #10]
 80029a8:	6b00      	ldrhi	r0, [r0, #48]	@ 0x30
 80029aa:	fb01 0003 	mlahi	r0, r1, r3, r0
 80029ae:	2000      	movls	r0, #0
 80029b0:	4770      	bx	lr

080029b2 <clmt_clust>:
 80029b2:	b538      	push	{r3, r4, r5, lr}
 80029b4:	4619      	mov	r1, r3
 80029b6:	6803      	ldr	r3, [r0, #0]
 80029b8:	6d04      	ldr	r4, [r0, #80]	@ 0x50
 80029ba:	0a55      	lsrs	r5, r2, #9
 80029bc:	ea45 50c1 	orr.w	r0, r5, r1, lsl #23
 80029c0:	895a      	ldrh	r2, [r3, #10]
 80029c2:	0a49      	lsrs	r1, r1, #9
 80029c4:	2300      	movs	r3, #0
 80029c6:	f7fd fbff 	bl	80001c8 <__aeabi_uldivmod>
 80029ca:	3404      	adds	r4, #4
 80029cc:	4602      	mov	r2, r0
 80029ce:	6820      	ldr	r0, [r4, #0]
 80029d0:	b130      	cbz	r0, 80029e0 <clmt_clust+0x2e>
 80029d2:	4282      	cmp	r2, r0
 80029d4:	d302      	bcc.n	80029dc <clmt_clust+0x2a>
 80029d6:	1a12      	subs	r2, r2, r0
 80029d8:	3408      	adds	r4, #8
 80029da:	e7f8      	b.n	80029ce <clmt_clust+0x1c>
 80029dc:	6860      	ldr	r0, [r4, #4]
 80029de:	4410      	add	r0, r2
 80029e0:	bd38      	pop	{r3, r4, r5, pc}

080029e2 <sum_sfn>:
 80029e2:	4603      	mov	r3, r0
 80029e4:	f100 010b 	add.w	r1, r0, #11
 80029e8:	2000      	movs	r0, #0
 80029ea:	01c2      	lsls	r2, r0, #7
 80029ec:	ea42 0250 	orr.w	r2, r2, r0, lsr #1
 80029f0:	f813 0b01 	ldrb.w	r0, [r3], #1
 80029f4:	fa50 f282 	uxtab	r2, r0, r2
 80029f8:	428b      	cmp	r3, r1
 80029fa:	b2d0      	uxtb	r0, r2
 80029fc:	d1f5      	bne.n	80029ea <sum_sfn+0x8>
 80029fe:	4770      	bx	lr

08002a00 <xdir_sum>:
 8002a00:	b510      	push	{r4, lr}
 8002a02:	7842      	ldrb	r2, [r0, #1]
 8002a04:	4604      	mov	r4, r0
 8002a06:	3201      	adds	r2, #1
 8002a08:	2000      	movs	r0, #0
 8002a0a:	0152      	lsls	r2, r2, #5
 8002a0c:	4603      	mov	r3, r0
 8002a0e:	2b02      	cmp	r3, #2
 8002a10:	bf08      	it	eq
 8002a12:	2304      	moveq	r3, #4
 8002a14:	03c1      	lsls	r1, r0, #15
 8002a16:	ea41 0150 	orr.w	r1, r1, r0, lsr #1
 8002a1a:	5ce0      	ldrb	r0, [r4, r3]
 8002a1c:	3301      	adds	r3, #1
 8002a1e:	fa10 f181 	uxtah	r1, r0, r1
 8002a22:	429a      	cmp	r2, r3
 8002a24:	b288      	uxth	r0, r1
 8002a26:	d8f2      	bhi.n	8002a0e <xdir_sum+0xe>
 8002a28:	bd10      	pop	{r4, pc}

08002a2a <get_ldnumber>:
 8002a2a:	6803      	ldr	r3, [r0, #0]
 8002a2c:	b510      	push	{r4, lr}
 8002a2e:	b18b      	cbz	r3, 8002a54 <get_ldnumber+0x2a>
 8002a30:	4619      	mov	r1, r3
 8002a32:	460a      	mov	r2, r1
 8002a34:	f811 4b01 	ldrb.w	r4, [r1], #1
 8002a38:	2c1f      	cmp	r4, #31
 8002a3a:	d909      	bls.n	8002a50 <get_ldnumber+0x26>
 8002a3c:	2c3a      	cmp	r4, #58	@ 0x3a
 8002a3e:	d1f8      	bne.n	8002a32 <get_ldnumber+0x8>
 8002a40:	7819      	ldrb	r1, [r3, #0]
 8002a42:	2930      	cmp	r1, #48	@ 0x30
 8002a44:	d106      	bne.n	8002a54 <get_ldnumber+0x2a>
 8002a46:	3301      	adds	r3, #1
 8002a48:	429a      	cmp	r2, r3
 8002a4a:	d103      	bne.n	8002a54 <get_ldnumber+0x2a>
 8002a4c:	3201      	adds	r2, #1
 8002a4e:	6002      	str	r2, [r0, #0]
 8002a50:	2000      	movs	r0, #0
 8002a52:	bd10      	pop	{r4, pc}
 8002a54:	f04f 30ff 	mov.w	r0, #4294967295
 8002a58:	e7fb      	b.n	8002a52 <get_ldnumber+0x28>

08002a5a <validate>:
 8002a5a:	b538      	push	{r3, r4, r5, lr}
 8002a5c:	460d      	mov	r5, r1
 8002a5e:	4604      	mov	r4, r0
 8002a60:	b918      	cbnz	r0, 8002a6a <validate+0x10>
 8002a62:	2009      	movs	r0, #9
 8002a64:	2300      	movs	r3, #0
 8002a66:	602b      	str	r3, [r5, #0]
 8002a68:	bd38      	pop	{r3, r4, r5, pc}
 8002a6a:	6803      	ldr	r3, [r0, #0]
 8002a6c:	2b00      	cmp	r3, #0
 8002a6e:	d0f8      	beq.n	8002a62 <validate+0x8>
 8002a70:	781a      	ldrb	r2, [r3, #0]
 8002a72:	2a00      	cmp	r2, #0
 8002a74:	d0f5      	beq.n	8002a62 <validate+0x8>
 8002a76:	8881      	ldrh	r1, [r0, #4]
 8002a78:	88da      	ldrh	r2, [r3, #6]
 8002a7a:	4291      	cmp	r1, r2
 8002a7c:	d1f1      	bne.n	8002a62 <validate+0x8>
 8002a7e:	7858      	ldrb	r0, [r3, #1]
 8002a80:	f7ff fe78 	bl	8002774 <disk_status>
 8002a84:	f010 0001 	ands.w	r0, r0, #1
 8002a88:	d1eb      	bne.n	8002a62 <validate+0x8>
 8002a8a:	6823      	ldr	r3, [r4, #0]
 8002a8c:	e7eb      	b.n	8002a66 <validate+0xc>

08002a8e <sync_window>:
 8002a8e:	b5f8      	push	{r3, r4, r5, r6, r7, lr}
 8002a90:	78c3      	ldrb	r3, [r0, #3]
 8002a92:	4604      	mov	r4, r0
 8002a94:	b90b      	cbnz	r3, 8002a9a <sync_window+0xc>
 8002a96:	2000      	movs	r0, #0
 8002a98:	bdf8      	pop	{r3, r4, r5, r6, r7, pc}
 8002a9a:	6b45      	ldr	r5, [r0, #52]	@ 0x34
 8002a9c:	f100 0738 	add.w	r7, r0, #56	@ 0x38
 8002aa0:	2301      	movs	r3, #1
 8002aa2:	7840      	ldrb	r0, [r0, #1]
 8002aa4:	462a      	mov	r2, r5
 8002aa6:	4639      	mov	r1, r7
 8002aa8:	f7ff fe90 	bl	80027cc <disk_write>
 8002aac:	b990      	cbnz	r0, 8002ad4 <sync_window+0x46>
 8002aae:	6aa3      	ldr	r3, [r4, #40]	@ 0x28
 8002ab0:	6a22      	ldr	r2, [r4, #32]
 8002ab2:	70e0      	strb	r0, [r4, #3]
 8002ab4:	1aeb      	subs	r3, r5, r3
 8002ab6:	4293      	cmp	r3, r2
 8002ab8:	d2ed      	bcs.n	8002a96 <sync_window+0x8>
 8002aba:	78a6      	ldrb	r6, [r4, #2]
 8002abc:	2e01      	cmp	r6, #1
 8002abe:	d9ea      	bls.n	8002a96 <sync_window+0x8>
 8002ac0:	6a23      	ldr	r3, [r4, #32]
 8002ac2:	7860      	ldrb	r0, [r4, #1]
 8002ac4:	441d      	add	r5, r3
 8002ac6:	462a      	mov	r2, r5
 8002ac8:	2301      	movs	r3, #1
 8002aca:	4639      	mov	r1, r7
 8002acc:	f7ff fe7e 	bl	80027cc <disk_write>
 8002ad0:	3e01      	subs	r6, #1
 8002ad2:	e7f3      	b.n	8002abc <sync_window+0x2e>
 8002ad4:	2001      	movs	r0, #1
 8002ad6:	e7df      	b.n	8002a98 <sync_window+0xa>

08002ad8 <xname_sum>:
 8002ad8:	b538      	push	{r3, r4, r5, lr}
 8002ada:	4605      	mov	r5, r0
 8002adc:	2400      	movs	r4, #0
 8002ade:	f835 0b02 	ldrh.w	r0, [r5], #2
 8002ae2:	b908      	cbnz	r0, 8002ae8 <xname_sum+0x10>
 8002ae4:	4620      	mov	r0, r4
 8002ae6:	bd38      	pop	{r3, r4, r5, pc}
 8002ae8:	f002 f9b2 	bl	8004e50 <ff_wtoupper>
 8002aec:	03e3      	lsls	r3, r4, #15
 8002aee:	ea43 0354 	orr.w	r3, r3, r4, lsr #1
 8002af2:	b2c2      	uxtb	r2, r0
 8002af4:	fa12 f383 	uxtah	r3, r2, r3
 8002af8:	f3c3 044e 	ubfx	r4, r3, #1, #15
 8002afc:	ea44 34c3 	orr.w	r4, r4, r3, lsl #15
 8002b00:	0a03      	lsrs	r3, r0, #8
 8002b02:	fa13 f484 	uxtah	r4, r3, r4
 8002b06:	b2a4      	uxth	r4, r4
 8002b08:	e7e9      	b.n	8002ade <xname_sum+0x6>

08002b0a <mem_cpy.part.0>:
 8002b0a:	3801      	subs	r0, #1
 8002b0c:	440a      	add	r2, r1
 8002b0e:	f811 3b01 	ldrb.w	r3, [r1], #1
 8002b12:	f800 3f01 	strb.w	r3, [r0, #1]!
 8002b16:	4291      	cmp	r1, r2
 8002b18:	d1f9      	bne.n	8002b0e <mem_cpy.part.0+0x4>
 8002b1a:	4770      	bx	lr

08002b1c <st_clust>:
 8002b1c:	f3c2 2307 	ubfx	r3, r2, #8, #8
 8002b20:	768a      	strb	r2, [r1, #26]
 8002b22:	76cb      	strb	r3, [r1, #27]
 8002b24:	7803      	ldrb	r3, [r0, #0]
 8002b26:	2b03      	cmp	r3, #3
 8002b28:	bf01      	itttt	eq
 8002b2a:	0c12      	lsreq	r2, r2, #16
 8002b2c:	750a      	strbeq	r2, [r1, #20]
 8002b2e:	0a12      	lsreq	r2, r2, #8
 8002b30:	754a      	strbeq	r2, [r1, #21]
 8002b32:	4770      	bx	lr

08002b34 <move_window>:
 8002b34:	b538      	push	{r3, r4, r5, lr}
 8002b36:	6b43      	ldr	r3, [r0, #52]	@ 0x34
 8002b38:	428b      	cmp	r3, r1
 8002b3a:	4605      	mov	r5, r0
 8002b3c:	460c      	mov	r4, r1
 8002b3e:	d010      	beq.n	8002b62 <move_window+0x2e>
 8002b40:	f7ff ffa5 	bl	8002a8e <sync_window>
 8002b44:	b960      	cbnz	r0, 8002b60 <move_window+0x2c>
 8002b46:	4622      	mov	r2, r4
 8002b48:	7868      	ldrb	r0, [r5, #1]
 8002b4a:	2301      	movs	r3, #1
 8002b4c:	f105 0138 	add.w	r1, r5, #56	@ 0x38
 8002b50:	f7ff fe2e 	bl	80027b0 <disk_read>
 8002b54:	2800      	cmp	r0, #0
 8002b56:	bf1c      	itt	ne
 8002b58:	f04f 34ff 	movne.w	r4, #4294967295
 8002b5c:	2001      	movne	r0, #1
 8002b5e:	636c      	str	r4, [r5, #52]	@ 0x34
 8002b60:	bd38      	pop	{r3, r4, r5, pc}
 8002b62:	2000      	movs	r0, #0
 8002b64:	e7fc      	b.n	8002b60 <move_window+0x2c>

08002b66 <change_bitmap>:
 8002b66:	3902      	subs	r1, #2
 8002b68:	e92d 47f0 	stmdb	sp!, {r4, r5, r6, r7, r8, r9, sl, lr}
 8002b6c:	6b06      	ldr	r6, [r0, #48]	@ 0x30
 8002b6e:	f001 0407 	and.w	r4, r1, #7
 8002b72:	f04f 0a01 	mov.w	sl, #1
 8002b76:	fa0a f404 	lsl.w	r4, sl, r4
 8002b7a:	4605      	mov	r5, r0
 8002b7c:	4617      	mov	r7, r2
 8002b7e:	4698      	mov	r8, r3
 8002b80:	eb06 3611 	add.w	r6, r6, r1, lsr #12
 8002b84:	f3c1 09c8 	ubfx	r9, r1, #3, #9
 8002b88:	b2e4      	uxtb	r4, r4
 8002b8a:	4631      	mov	r1, r6
 8002b8c:	4628      	mov	r0, r5
 8002b8e:	3601      	adds	r6, #1
 8002b90:	f7ff ffd0 	bl	8002b34 <move_window>
 8002b94:	b118      	cbz	r0, 8002b9e <change_bitmap+0x38>
 8002b96:	2001      	movs	r0, #1
 8002b98:	e8bd 87f0 	ldmia.w	sp!, {r4, r5, r6, r7, r8, r9, sl, pc}
 8002b9c:	4699      	mov	r9, r3
 8002b9e:	eb05 0209 	add.w	r2, r5, r9
 8002ba2:	f892 3038 	ldrb.w	r3, [r2, #56]	@ 0x38
 8002ba6:	4223      	tst	r3, r4
 8002ba8:	bf14      	ite	ne
 8002baa:	2101      	movne	r1, #1
 8002bac:	2100      	moveq	r1, #0
 8002bae:	4541      	cmp	r1, r8
 8002bb0:	d014      	beq.n	8002bdc <change_bitmap+0x76>
 8002bb2:	4063      	eors	r3, r4
 8002bb4:	3f01      	subs	r7, #1
 8002bb6:	f882 3038 	strb.w	r3, [r2, #56]	@ 0x38
 8002bba:	f885 a003 	strb.w	sl, [r5, #3]
 8002bbe:	d0eb      	beq.n	8002b98 <change_bitmap+0x32>
 8002bc0:	0064      	lsls	r4, r4, #1
 8002bc2:	f014 04ff 	ands.w	r4, r4, #255	@ 0xff
 8002bc6:	d1ea      	bne.n	8002b9e <change_bitmap+0x38>
 8002bc8:	f109 0301 	add.w	r3, r9, #1
 8002bcc:	f5b3 7f00 	cmp.w	r3, #512	@ 0x200
 8002bd0:	f04f 0401 	mov.w	r4, #1
 8002bd4:	f04f 0900 	mov.w	r9, #0
 8002bd8:	d3e0      	bcc.n	8002b9c <change_bitmap+0x36>
 8002bda:	e7d6      	b.n	8002b8a <change_bitmap+0x24>
 8002bdc:	2002      	movs	r0, #2
 8002bde:	e7db      	b.n	8002b98 <change_bitmap+0x32>

08002be0 <get_fat>:
 8002be0:	2901      	cmp	r1, #1
 8002be2:	b5f8      	push	{r3, r4, r5, r6, r7, lr}
 8002be4:	460c      	mov	r4, r1
 8002be6:	f240 8087 	bls.w	8002cf8 <get_fat+0x118>
 8002bea:	6806      	ldr	r6, [r0, #0]
 8002bec:	69f3      	ldr	r3, [r6, #28]
 8002bee:	428b      	cmp	r3, r1
 8002bf0:	f240 8082 	bls.w	8002cf8 <get_fat+0x118>
 8002bf4:	7833      	ldrb	r3, [r6, #0]
 8002bf6:	3b01      	subs	r3, #1
 8002bf8:	2b03      	cmp	r3, #3
 8002bfa:	d87d      	bhi.n	8002cf8 <get_fat+0x118>
 8002bfc:	e8df f003 	tbb	[pc, r3]
 8002c00:	4a372902 	.word	0x4a372902
 8002c04:	eb01 0551 	add.w	r5, r1, r1, lsr #1
 8002c08:	6ab1      	ldr	r1, [r6, #40]	@ 0x28
 8002c0a:	4630      	mov	r0, r6
 8002c0c:	eb01 2155 	add.w	r1, r1, r5, lsr #9
 8002c10:	f7ff ff90 	bl	8002b34 <move_window>
 8002c14:	b110      	cbz	r0, 8002c1c <get_fat+0x3c>
 8002c16:	f04f 30ff 	mov.w	r0, #4294967295
 8002c1a:	bdf8      	pop	{r3, r4, r5, r6, r7, pc}
 8002c1c:	1c6f      	adds	r7, r5, #1
 8002c1e:	6ab1      	ldr	r1, [r6, #40]	@ 0x28
 8002c20:	f3c5 0508 	ubfx	r5, r5, #0, #9
 8002c24:	4435      	add	r5, r6
 8002c26:	eb01 2157 	add.w	r1, r1, r7, lsr #9
 8002c2a:	4630      	mov	r0, r6
 8002c2c:	f895 5038 	ldrb.w	r5, [r5, #56]	@ 0x38
 8002c30:	f7ff ff80 	bl	8002b34 <move_window>
 8002c34:	2800      	cmp	r0, #0
 8002c36:	d1ee      	bne.n	8002c16 <get_fat+0x36>
 8002c38:	f3c7 0708 	ubfx	r7, r7, #0, #9
 8002c3c:	4437      	add	r7, r6
 8002c3e:	f897 3038 	ldrb.w	r3, [r7, #56]	@ 0x38
 8002c42:	ea45 2003 	orr.w	r0, r5, r3, lsl #8
 8002c46:	07e3      	lsls	r3, r4, #31
 8002c48:	bf4c      	ite	mi
 8002c4a:	0900      	lsrmi	r0, r0, #4
 8002c4c:	f3c0 000b 	ubfxpl	r0, r0, #0, #12
 8002c50:	e7e3      	b.n	8002c1a <get_fat+0x3a>
 8002c52:	6ab1      	ldr	r1, [r6, #40]	@ 0x28
 8002c54:	4630      	mov	r0, r6
 8002c56:	eb01 2114 	add.w	r1, r1, r4, lsr #8
 8002c5a:	f7ff ff6b 	bl	8002b34 <move_window>
 8002c5e:	2800      	cmp	r0, #0
 8002c60:	d1d9      	bne.n	8002c16 <get_fat+0x36>
 8002c62:	0064      	lsls	r4, r4, #1
 8002c64:	f404 74ff 	and.w	r4, r4, #510	@ 0x1fe
 8002c68:	4434      	add	r4, r6
 8002c6a:	8f20      	ldrh	r0, [r4, #56]	@ 0x38
 8002c6c:	e7d5      	b.n	8002c1a <get_fat+0x3a>
 8002c6e:	6ab1      	ldr	r1, [r6, #40]	@ 0x28
 8002c70:	4630      	mov	r0, r6
 8002c72:	eb01 11d4 	add.w	r1, r1, r4, lsr #7
 8002c76:	f7ff ff5d 	bl	8002b34 <move_window>
 8002c7a:	2800      	cmp	r0, #0
 8002c7c:	d1cb      	bne.n	8002c16 <get_fat+0x36>
 8002c7e:	00a4      	lsls	r4, r4, #2
 8002c80:	f106 0038 	add.w	r0, r6, #56	@ 0x38
 8002c84:	f404 74fe 	and.w	r4, r4, #508	@ 0x1fc
 8002c88:	4420      	add	r0, r4
 8002c8a:	f7ff fdbb 	bl	8002804 <ld_dword>
 8002c8e:	f020 4070 	bic.w	r0, r0, #4026531840	@ 0xf0000000
 8002c92:	e7c2      	b.n	8002c1a <get_fat+0x3a>
 8002c94:	e9d0 3104 	ldrd	r3, r1, [r0, #16]
 8002c98:	ea53 0201 	orrs.w	r2, r3, r1
 8002c9c:	d02c      	beq.n	8002cf8 <get_fat+0x118>
 8002c9e:	79c5      	ldrb	r5, [r0, #7]
 8002ca0:	6882      	ldr	r2, [r0, #8]
 8002ca2:	8977      	ldrh	r7, [r6, #10]
 8002ca4:	2d02      	cmp	r5, #2
 8002ca6:	eba4 0202 	sub.w	r2, r4, r2
 8002caa:	d10c      	bne.n	8002cc6 <get_fat+0xe6>
 8002cac:	3b01      	subs	r3, #1
 8002cae:	f141 31ff 	adc.w	r1, r1, #4294967295
 8002cb2:	0a5b      	lsrs	r3, r3, #9
 8002cb4:	ea43 53c1 	orr.w	r3, r3, r1, lsl #23
 8002cb8:	fbb3 f3f7 	udiv	r3, r3, r7
 8002cbc:	429a      	cmp	r2, r3
 8002cbe:	d81b      	bhi.n	8002cf8 <get_fat+0x118>
 8002cc0:	d01c      	beq.n	8002cfc <get_fat+0x11c>
 8002cc2:	1c60      	adds	r0, r4, #1
 8002cc4:	e7a9      	b.n	8002c1a <get_fat+0x3a>
 8002cc6:	2d03      	cmp	r5, #3
 8002cc8:	d102      	bne.n	8002cd0 <get_fat+0xf0>
 8002cca:	6983      	ldr	r3, [r0, #24]
 8002ccc:	4293      	cmp	r3, r2
 8002cce:	d8f8      	bhi.n	8002cc2 <get_fat+0xe2>
 8002cd0:	69c3      	ldr	r3, [r0, #28]
 8002cd2:	b99b      	cbnz	r3, 8002cfc <get_fat+0x11c>
 8002cd4:	6ab1      	ldr	r1, [r6, #40]	@ 0x28
 8002cd6:	4630      	mov	r0, r6
 8002cd8:	eb01 11d4 	add.w	r1, r1, r4, lsr #7
 8002cdc:	f7ff ff2a 	bl	8002b34 <move_window>
 8002ce0:	2800      	cmp	r0, #0
 8002ce2:	d198      	bne.n	8002c16 <get_fat+0x36>
 8002ce4:	00a0      	lsls	r0, r4, #2
 8002ce6:	3638      	adds	r6, #56	@ 0x38
 8002ce8:	f400 70fe 	and.w	r0, r0, #508	@ 0x1fc
 8002cec:	4430      	add	r0, r6
 8002cee:	f7ff fd89 	bl	8002804 <ld_dword>
 8002cf2:	f020 4000 	bic.w	r0, r0, #2147483648	@ 0x80000000
 8002cf6:	e790      	b.n	8002c1a <get_fat+0x3a>
 8002cf8:	2001      	movs	r0, #1
 8002cfa:	e78e      	b.n	8002c1a <get_fat+0x3a>
 8002cfc:	f06f 4000 	mvn.w	r0, #2147483648	@ 0x80000000
 8002d00:	e78b      	b.n	8002c1a <get_fat+0x3a>

08002d02 <dir_sdi>:
 8002d02:	b5f8      	push	{r3, r4, r5, r6, r7, lr}
 8002d04:	6805      	ldr	r5, [r0, #0]
 8002d06:	782b      	ldrb	r3, [r5, #0]
 8002d08:	2b04      	cmp	r3, #4
 8002d0a:	bf14      	ite	ne
 8002d0c:	f44f 1200 	movne.w	r2, #2097152	@ 0x200000
 8002d10:	f04f 5280 	moveq.w	r2, #268435456	@ 0x10000000
 8002d14:	428a      	cmp	r2, r1
 8002d16:	4606      	mov	r6, r0
 8002d18:	460c      	mov	r4, r1
 8002d1a:	d801      	bhi.n	8002d20 <dir_sdi+0x1e>
 8002d1c:	2002      	movs	r0, #2
 8002d1e:	bdf8      	pop	{r3, r4, r5, r6, r7, pc}
 8002d20:	06ca      	lsls	r2, r1, #27
 8002d22:	d1fb      	bne.n	8002d1c <dir_sdi+0x1a>
 8002d24:	6882      	ldr	r2, [r0, #8]
 8002d26:	6301      	str	r1, [r0, #48]	@ 0x30
 8002d28:	bb12      	cbnz	r2, 8002d70 <dir_sdi+0x6e>
 8002d2a:	2b02      	cmp	r3, #2
 8002d2c:	d812      	bhi.n	8002d54 <dir_sdi+0x52>
 8002d2e:	892b      	ldrh	r3, [r5, #8]
 8002d30:	ebb3 1f54 	cmp.w	r3, r4, lsr #5
 8002d34:	d9f2      	bls.n	8002d1c <dir_sdi+0x1a>
 8002d36:	6ae8      	ldr	r0, [r5, #44]	@ 0x2c
 8002d38:	e9c6 200d 	strd	r2, r0, [r6, #52]	@ 0x34
 8002d3c:	2800      	cmp	r0, #0
 8002d3e:	d0ed      	beq.n	8002d1c <dir_sdi+0x1a>
 8002d40:	eb00 2054 	add.w	r0, r0, r4, lsr #9
 8002d44:	3538      	adds	r5, #56	@ 0x38
 8002d46:	f3c4 0408 	ubfx	r4, r4, #0, #9
 8002d4a:	4425      	add	r5, r4
 8002d4c:	63b0      	str	r0, [r6, #56]	@ 0x38
 8002d4e:	63f5      	str	r5, [r6, #60]	@ 0x3c
 8002d50:	2000      	movs	r0, #0
 8002d52:	e7e4      	b.n	8002d1e <dir_sdi+0x1c>
 8002d54:	6aeb      	ldr	r3, [r5, #44]	@ 0x2c
 8002d56:	71c2      	strb	r2, [r0, #7]
 8002d58:	2b00      	cmp	r3, #0
 8002d5a:	d0e8      	beq.n	8002d2e <dir_sdi+0x2c>
 8002d5c:	896f      	ldrh	r7, [r5, #10]
 8002d5e:	461a      	mov	r2, r3
 8002d60:	027f      	lsls	r7, r7, #9
 8002d62:	42bc      	cmp	r4, r7
 8002d64:	4611      	mov	r1, r2
 8002d66:	d205      	bcs.n	8002d74 <dir_sdi+0x72>
 8002d68:	4628      	mov	r0, r5
 8002d6a:	f7ff fe17 	bl	800299c <clust2sect>
 8002d6e:	e7e3      	b.n	8002d38 <dir_sdi+0x36>
 8002d70:	4613      	mov	r3, r2
 8002d72:	e7f3      	b.n	8002d5c <dir_sdi+0x5a>
 8002d74:	4630      	mov	r0, r6
 8002d76:	f7ff ff33 	bl	8002be0 <get_fat>
 8002d7a:	1c43      	adds	r3, r0, #1
 8002d7c:	4602      	mov	r2, r0
 8002d7e:	d006      	beq.n	8002d8e <dir_sdi+0x8c>
 8002d80:	2801      	cmp	r0, #1
 8002d82:	d9cb      	bls.n	8002d1c <dir_sdi+0x1a>
 8002d84:	69eb      	ldr	r3, [r5, #28]
 8002d86:	4283      	cmp	r3, r0
 8002d88:	d9c8      	bls.n	8002d1c <dir_sdi+0x1a>
 8002d8a:	1be4      	subs	r4, r4, r7
 8002d8c:	e7e9      	b.n	8002d62 <dir_sdi+0x60>
 8002d8e:	2001      	movs	r0, #1
 8002d90:	e7c5      	b.n	8002d1e <dir_sdi+0x1c>

08002d92 <put_fat>:
 8002d92:	2901      	cmp	r1, #1
 8002d94:	e92d 43f8 	stmdb	sp!, {r3, r4, r5, r6, r7, r8, r9, lr}
 8002d98:	4606      	mov	r6, r0
 8002d9a:	460c      	mov	r4, r1
 8002d9c:	4615      	mov	r5, r2
 8002d9e:	d908      	bls.n	8002db2 <put_fat+0x20>
 8002da0:	69c3      	ldr	r3, [r0, #28]
 8002da2:	428b      	cmp	r3, r1
 8002da4:	d905      	bls.n	8002db2 <put_fat+0x20>
 8002da6:	7803      	ldrb	r3, [r0, #0]
 8002da8:	2b02      	cmp	r3, #2
 8002daa:	d05c      	beq.n	8002e66 <put_fat+0xd4>
 8002dac:	d803      	bhi.n	8002db6 <put_fat+0x24>
 8002dae:	2b01      	cmp	r3, #1
 8002db0:	d020      	beq.n	8002df4 <put_fat+0x62>
 8002db2:	2002      	movs	r0, #2
 8002db4:	e069      	b.n	8002e8a <put_fat+0xf8>
 8002db6:	3b03      	subs	r3, #3
 8002db8:	2b01      	cmp	r3, #1
 8002dba:	d8fa      	bhi.n	8002db2 <put_fat+0x20>
 8002dbc:	6a81      	ldr	r1, [r0, #40]	@ 0x28
 8002dbe:	eb01 11d4 	add.w	r1, r1, r4, lsr #7
 8002dc2:	f7ff feb7 	bl	8002b34 <move_window>
 8002dc6:	2800      	cmp	r0, #0
 8002dc8:	d15f      	bne.n	8002e8a <put_fat+0xf8>
 8002dca:	4633      	mov	r3, r6
 8002dcc:	00a4      	lsls	r4, r4, #2
 8002dce:	f813 2b38 	ldrb.w	r2, [r3], #56
 8002dd2:	2a04      	cmp	r2, #4
 8002dd4:	f404 74fe 	and.w	r4, r4, #508	@ 0x1fc
 8002dd8:	d007      	beq.n	8002dea <put_fat+0x58>
 8002dda:	1918      	adds	r0, r3, r4
 8002ddc:	f7ff fd12 	bl	8002804 <ld_dword>
 8002de0:	f025 4570 	bic.w	r5, r5, #4026531840	@ 0xf0000000
 8002de4:	f000 4070 	and.w	r0, r0, #4026531840	@ 0xf0000000
 8002de8:	4305      	orrs	r5, r0
 8002dea:	4629      	mov	r1, r5
 8002dec:	1918      	adds	r0, r3, r4
 8002dee:	f7ff fd0f 	bl	8002810 <st_dword>
 8002df2:	e02c      	b.n	8002e4e <put_fat+0xbc>
 8002df4:	eb01 0751 	add.w	r7, r1, r1, lsr #1
 8002df8:	6a81      	ldr	r1, [r0, #40]	@ 0x28
 8002dfa:	eb01 2157 	add.w	r1, r1, r7, lsr #9
 8002dfe:	f7ff fe99 	bl	8002b34 <move_window>
 8002e02:	2800      	cmp	r0, #0
 8002e04:	d141      	bne.n	8002e8a <put_fat+0xf8>
 8002e06:	f106 0838 	add.w	r8, r6, #56	@ 0x38
 8002e0a:	f107 0901 	add.w	r9, r7, #1
 8002e0e:	f3c7 0708 	ubfx	r7, r7, #0, #9
 8002e12:	f014 0401 	ands.w	r4, r4, #1
 8002e16:	bf18      	it	ne
 8002e18:	f818 2007 	ldrbne.w	r2, [r8, r7]
 8002e1c:	b2eb      	uxtb	r3, r5
 8002e1e:	bf1e      	ittt	ne
 8002e20:	f002 020f 	andne.w	r2, r2, #15
 8002e24:	ea42 1303 	orrne.w	r3, r2, r3, lsl #4
 8002e28:	b2db      	uxtbne	r3, r3
 8002e2a:	f808 3007 	strb.w	r3, [r8, r7]
 8002e2e:	6ab1      	ldr	r1, [r6, #40]	@ 0x28
 8002e30:	2301      	movs	r3, #1
 8002e32:	70f3      	strb	r3, [r6, #3]
 8002e34:	eb01 2159 	add.w	r1, r1, r9, lsr #9
 8002e38:	4630      	mov	r0, r6
 8002e3a:	f7ff fe7b 	bl	8002b34 <move_window>
 8002e3e:	bb20      	cbnz	r0, 8002e8a <put_fat+0xf8>
 8002e40:	f3c9 0908 	ubfx	r9, r9, #0, #9
 8002e44:	b13c      	cbz	r4, 8002e56 <put_fat+0xc4>
 8002e46:	f3c5 1507 	ubfx	r5, r5, #4, #8
 8002e4a:	f808 5009 	strb.w	r5, [r8, r9]
 8002e4e:	2301      	movs	r3, #1
 8002e50:	70f3      	strb	r3, [r6, #3]
 8002e52:	2000      	movs	r0, #0
 8002e54:	e019      	b.n	8002e8a <put_fat+0xf8>
 8002e56:	f818 3009 	ldrb.w	r3, [r8, r9]
 8002e5a:	f3c5 2503 	ubfx	r5, r5, #8, #4
 8002e5e:	f023 030f 	bic.w	r3, r3, #15
 8002e62:	431d      	orrs	r5, r3
 8002e64:	e7f1      	b.n	8002e4a <put_fat+0xb8>
 8002e66:	6a81      	ldr	r1, [r0, #40]	@ 0x28
 8002e68:	eb01 2114 	add.w	r1, r1, r4, lsr #8
 8002e6c:	f7ff fe62 	bl	8002b34 <move_window>
 8002e70:	b958      	cbnz	r0, 8002e8a <put_fat+0xf8>
 8002e72:	0064      	lsls	r4, r4, #1
 8002e74:	f106 0338 	add.w	r3, r6, #56	@ 0x38
 8002e78:	f404 74ff 	and.w	r4, r4, #510	@ 0x1fe
 8002e7c:	191a      	adds	r2, r3, r4
 8002e7e:	551d      	strb	r5, [r3, r4]
 8002e80:	f3c5 2507 	ubfx	r5, r5, #8, #8
 8002e84:	2301      	movs	r3, #1
 8002e86:	7055      	strb	r5, [r2, #1]
 8002e88:	70f3      	strb	r3, [r6, #3]
 8002e8a:	e8bd 83f8 	ldmia.w	sp!, {r3, r4, r5, r6, r7, r8, r9, pc}

08002e8e <fill_last_frag>:
 8002e8e:	b5f8      	push	{r3, r4, r5, r6, r7, lr}
 8002e90:	4604      	mov	r4, r0
 8002e92:	460e      	mov	r6, r1
 8002e94:	4617      	mov	r7, r2
 8002e96:	69e3      	ldr	r3, [r4, #28]
 8002e98:	b90b      	cbnz	r3, 8002e9e <fill_last_frag+0x10>
 8002e9a:	4618      	mov	r0, r3
 8002e9c:	bdf8      	pop	{r3, r4, r5, r6, r7, pc}
 8002e9e:	2b01      	cmp	r3, #1
 8002ea0:	eba6 0503 	sub.w	r5, r6, r3
 8002ea4:	bf14      	ite	ne
 8002ea6:	1caa      	addne	r2, r5, #2
 8002ea8:	463a      	moveq	r2, r7
 8002eaa:	6820      	ldr	r0, [r4, #0]
 8002eac:	1c69      	adds	r1, r5, #1
 8002eae:	f7ff ff70 	bl	8002d92 <put_fat>
 8002eb2:	2800      	cmp	r0, #0
 8002eb4:	d1f2      	bne.n	8002e9c <fill_last_frag+0xe>
 8002eb6:	69e3      	ldr	r3, [r4, #28]
 8002eb8:	3b01      	subs	r3, #1
 8002eba:	61e3      	str	r3, [r4, #28]
 8002ebc:	e7eb      	b.n	8002e96 <fill_last_frag+0x8>

08002ebe <fill_first_frag>:
 8002ebe:	b570      	push	{r4, r5, r6, lr}
 8002ec0:	79c3      	ldrb	r3, [r0, #7]
 8002ec2:	2b03      	cmp	r3, #3
 8002ec4:	4604      	mov	r4, r0
 8002ec6:	d001      	beq.n	8002ecc <fill_first_frag+0xe>
 8002ec8:	2000      	movs	r0, #0
 8002eca:	bd70      	pop	{r4, r5, r6, pc}
 8002ecc:	6881      	ldr	r1, [r0, #8]
 8002ece:	6983      	ldr	r3, [r0, #24]
 8002ed0:	18cd      	adds	r5, r1, r3
 8002ed2:	42a9      	cmp	r1, r5
 8002ed4:	d102      	bne.n	8002edc <fill_first_frag+0x1e>
 8002ed6:	2300      	movs	r3, #0
 8002ed8:	71e3      	strb	r3, [r4, #7]
 8002eda:	e7f5      	b.n	8002ec8 <fill_first_frag+0xa>
 8002edc:	1c4e      	adds	r6, r1, #1
 8002ede:	6820      	ldr	r0, [r4, #0]
 8002ee0:	4632      	mov	r2, r6
 8002ee2:	f7ff ff56 	bl	8002d92 <put_fat>
 8002ee6:	2800      	cmp	r0, #0
 8002ee8:	d1ef      	bne.n	8002eca <fill_first_frag+0xc>
 8002eea:	4631      	mov	r1, r6
 8002eec:	e7f1      	b.n	8002ed2 <fill_first_frag+0x14>

08002eee <remove_chain>:
 8002eee:	2901      	cmp	r1, #1
 8002ef0:	e92d 43f8 	stmdb	sp!, {r3, r4, r5, r6, r7, r8, r9, lr}
 8002ef4:	6805      	ldr	r5, [r0, #0]
 8002ef6:	4606      	mov	r6, r0
 8002ef8:	460c      	mov	r4, r1
 8002efa:	4617      	mov	r7, r2
 8002efc:	d802      	bhi.n	8002f04 <remove_chain+0x16>
 8002efe:	2002      	movs	r0, #2
 8002f00:	e8bd 83f8 	ldmia.w	sp!, {r3, r4, r5, r6, r7, r8, r9, pc}
 8002f04:	69eb      	ldr	r3, [r5, #28]
 8002f06:	428b      	cmp	r3, r1
 8002f08:	d9f9      	bls.n	8002efe <remove_chain+0x10>
 8002f0a:	b97a      	cbnz	r2, 8002f2c <remove_chain+0x3e>
 8002f0c:	46a1      	mov	r9, r4
 8002f0e:	4621      	mov	r1, r4
 8002f10:	4630      	mov	r0, r6
 8002f12:	f7ff fe65 	bl	8002be0 <get_fat>
 8002f16:	46a0      	mov	r8, r4
 8002f18:	4604      	mov	r4, r0
 8002f1a:	b9b0      	cbnz	r0, 8002f4a <remove_chain+0x5c>
 8002f1c:	782b      	ldrb	r3, [r5, #0]
 8002f1e:	2b04      	cmp	r3, #4
 8002f20:	d102      	bne.n	8002f28 <remove_chain+0x3a>
 8002f22:	2f00      	cmp	r7, #0
 8002f24:	d142      	bne.n	8002fac <remove_chain+0xbe>
 8002f26:	71f7      	strb	r7, [r6, #7]
 8002f28:	2000      	movs	r0, #0
 8002f2a:	e7e9      	b.n	8002f00 <remove_chain+0x12>
 8002f2c:	782b      	ldrb	r3, [r5, #0]
 8002f2e:	2b04      	cmp	r3, #4
 8002f30:	d102      	bne.n	8002f38 <remove_chain+0x4a>
 8002f32:	79c3      	ldrb	r3, [r0, #7]
 8002f34:	2b02      	cmp	r3, #2
 8002f36:	d0e9      	beq.n	8002f0c <remove_chain+0x1e>
 8002f38:	f04f 32ff 	mov.w	r2, #4294967295
 8002f3c:	4639      	mov	r1, r7
 8002f3e:	4628      	mov	r0, r5
 8002f40:	f7ff ff27 	bl	8002d92 <put_fat>
 8002f44:	2800      	cmp	r0, #0
 8002f46:	d0e1      	beq.n	8002f0c <remove_chain+0x1e>
 8002f48:	e7da      	b.n	8002f00 <remove_chain+0x12>
 8002f4a:	2801      	cmp	r0, #1
 8002f4c:	d0d7      	beq.n	8002efe <remove_chain+0x10>
 8002f4e:	1c43      	adds	r3, r0, #1
 8002f50:	d039      	beq.n	8002fc6 <remove_chain+0xd8>
 8002f52:	782b      	ldrb	r3, [r5, #0]
 8002f54:	2b04      	cmp	r3, #4
 8002f56:	d110      	bne.n	8002f7a <remove_chain+0x8c>
 8002f58:	e9d5 3206 	ldrd	r3, r2, [r5, #24]
 8002f5c:	3a02      	subs	r2, #2
 8002f5e:	4293      	cmp	r3, r2
 8002f60:	d313      	bcc.n	8002f8a <remove_chain+0x9c>
 8002f62:	f108 0201 	add.w	r2, r8, #1
 8002f66:	42a2      	cmp	r2, r4
 8002f68:	d003      	beq.n	8002f72 <remove_chain+0x84>
 8002f6a:	782b      	ldrb	r3, [r5, #0]
 8002f6c:	2b04      	cmp	r3, #4
 8002f6e:	d013      	beq.n	8002f98 <remove_chain+0xaa>
 8002f70:	46a1      	mov	r9, r4
 8002f72:	69eb      	ldr	r3, [r5, #28]
 8002f74:	42a3      	cmp	r3, r4
 8002f76:	d8ca      	bhi.n	8002f0e <remove_chain+0x20>
 8002f78:	e7d0      	b.n	8002f1c <remove_chain+0x2e>
 8002f7a:	2200      	movs	r2, #0
 8002f7c:	4641      	mov	r1, r8
 8002f7e:	4628      	mov	r0, r5
 8002f80:	f7ff ff07 	bl	8002d92 <put_fat>
 8002f84:	2800      	cmp	r0, #0
 8002f86:	d0e7      	beq.n	8002f58 <remove_chain+0x6a>
 8002f88:	e7ba      	b.n	8002f00 <remove_chain+0x12>
 8002f8a:	3301      	adds	r3, #1
 8002f8c:	61ab      	str	r3, [r5, #24]
 8002f8e:	792b      	ldrb	r3, [r5, #4]
 8002f90:	f043 0301 	orr.w	r3, r3, #1
 8002f94:	712b      	strb	r3, [r5, #4]
 8002f96:	e7e4      	b.n	8002f62 <remove_chain+0x74>
 8002f98:	2300      	movs	r3, #0
 8002f9a:	eba2 0209 	sub.w	r2, r2, r9
 8002f9e:	4649      	mov	r1, r9
 8002fa0:	4628      	mov	r0, r5
 8002fa2:	f7ff fde0 	bl	8002b66 <change_bitmap>
 8002fa6:	2800      	cmp	r0, #0
 8002fa8:	d0e2      	beq.n	8002f70 <remove_chain+0x82>
 8002faa:	e7a9      	b.n	8002f00 <remove_chain+0x12>
 8002fac:	79f3      	ldrb	r3, [r6, #7]
 8002fae:	2b03      	cmp	r3, #3
 8002fb0:	d1ba      	bne.n	8002f28 <remove_chain+0x3a>
 8002fb2:	68b3      	ldr	r3, [r6, #8]
 8002fb4:	42bb      	cmp	r3, r7
 8002fb6:	d8b7      	bhi.n	8002f28 <remove_chain+0x3a>
 8002fb8:	69b2      	ldr	r2, [r6, #24]
 8002fba:	4413      	add	r3, r2
 8002fbc:	42bb      	cmp	r3, r7
 8002fbe:	d3b3      	bcc.n	8002f28 <remove_chain+0x3a>
 8002fc0:	2302      	movs	r3, #2
 8002fc2:	71f3      	strb	r3, [r6, #7]
 8002fc4:	e7b0      	b.n	8002f28 <remove_chain+0x3a>
 8002fc6:	2001      	movs	r0, #1
 8002fc8:	e79a      	b.n	8002f00 <remove_chain+0x12>

08002fca <sync_fs>:
 8002fca:	b5f8      	push	{r3, r4, r5, r6, r7, lr}
 8002fcc:	4604      	mov	r4, r0
 8002fce:	f7ff fd5e 	bl	8002a8e <sync_window>
 8002fd2:	4605      	mov	r5, r0
 8002fd4:	2800      	cmp	r0, #0
 8002fd6:	d142      	bne.n	800305e <sync_fs+0x94>
 8002fd8:	7823      	ldrb	r3, [r4, #0]
 8002fda:	2b03      	cmp	r3, #3
 8002fdc:	d137      	bne.n	800304e <sync_fs+0x84>
 8002fde:	7927      	ldrb	r7, [r4, #4]
 8002fe0:	2f01      	cmp	r7, #1
 8002fe2:	d134      	bne.n	800304e <sync_fs+0x84>
 8002fe4:	f104 0638 	add.w	r6, r4, #56	@ 0x38
 8002fe8:	4601      	mov	r1, r0
 8002fea:	f44f 7200 	mov.w	r2, #512	@ 0x200
 8002fee:	4630      	mov	r0, r6
 8002ff0:	2355      	movs	r3, #85	@ 0x55
 8002ff2:	f7ff fc24 	bl	800283e <mem_set>
 8002ff6:	f884 3236 	strb.w	r3, [r4, #566]	@ 0x236
 8002ffa:	23aa      	movs	r3, #170	@ 0xaa
 8002ffc:	f884 3237 	strb.w	r3, [r4, #567]	@ 0x237
 8003000:	2352      	movs	r3, #82	@ 0x52
 8003002:	2241      	movs	r2, #65	@ 0x41
 8003004:	2172      	movs	r1, #114	@ 0x72
 8003006:	f884 3038 	strb.w	r3, [r4, #56]	@ 0x38
 800300a:	f884 3039 	strb.w	r3, [r4, #57]	@ 0x39
 800300e:	2361      	movs	r3, #97	@ 0x61
 8003010:	f884 303a 	strb.w	r3, [r4, #58]	@ 0x3a
 8003014:	f884 321f 	strb.w	r3, [r4, #543]	@ 0x21f
 8003018:	f884 203b 	strb.w	r2, [r4, #59]	@ 0x3b
 800301c:	f884 121c 	strb.w	r1, [r4, #540]	@ 0x21c
 8003020:	f884 121d 	strb.w	r1, [r4, #541]	@ 0x21d
 8003024:	f884 221e 	strb.w	r2, [r4, #542]	@ 0x21e
 8003028:	69a1      	ldr	r1, [r4, #24]
 800302a:	f504 7008 	add.w	r0, r4, #544	@ 0x220
 800302e:	f7ff fbef 	bl	8002810 <st_dword>
 8003032:	6961      	ldr	r1, [r4, #20]
 8003034:	f504 7009 	add.w	r0, r4, #548	@ 0x224
 8003038:	f7ff fbea 	bl	8002810 <st_dword>
 800303c:	6a62      	ldr	r2, [r4, #36]	@ 0x24
 800303e:	7860      	ldrb	r0, [r4, #1]
 8003040:	3201      	adds	r2, #1
 8003042:	6362      	str	r2, [r4, #52]	@ 0x34
 8003044:	463b      	mov	r3, r7
 8003046:	4631      	mov	r1, r6
 8003048:	f7ff fbc0 	bl	80027cc <disk_write>
 800304c:	7125      	strb	r5, [r4, #4]
 800304e:	2200      	movs	r2, #0
 8003050:	7860      	ldrb	r0, [r4, #1]
 8003052:	4611      	mov	r1, r2
 8003054:	f7ff fbc8 	bl	80027e8 <disk_ioctl>
 8003058:	3800      	subs	r0, #0
 800305a:	bf18      	it	ne
 800305c:	2001      	movne	r0, #1
 800305e:	bdf8      	pop	{r3, r4, r5, r6, r7, pc}

08003060 <create_chain>:
 8003060:	e92d 4ff8 	stmdb	sp!, {r3, r4, r5, r6, r7, r8, r9, sl, fp, lr}
 8003064:	6805      	ldr	r5, [r0, #0]
 8003066:	4606      	mov	r6, r0
 8003068:	4688      	mov	r8, r1
 800306a:	2900      	cmp	r1, #0
 800306c:	d14e      	bne.n	800310c <create_chain+0xac>
 800306e:	696f      	ldr	r7, [r5, #20]
 8003070:	2f00      	cmp	r7, #0
 8003072:	d05b      	beq.n	800312c <create_chain+0xcc>
 8003074:	69eb      	ldr	r3, [r5, #28]
 8003076:	429f      	cmp	r7, r3
 8003078:	bf28      	it	cs
 800307a:	2701      	movcs	r7, #1
 800307c:	782a      	ldrb	r2, [r5, #0]
 800307e:	69eb      	ldr	r3, [r5, #28]
 8003080:	2a04      	cmp	r2, #4
 8003082:	f040 8094 	bne.w	80031ae <create_chain+0x14e>
 8003086:	f1a7 0a02 	sub.w	sl, r7, #2
 800308a:	3b02      	subs	r3, #2
 800308c:	459a      	cmp	sl, r3
 800308e:	bf28      	it	cs
 8003090:	f04f 0a00 	movcs.w	sl, #0
 8003094:	46d1      	mov	r9, sl
 8003096:	f04f 0b01 	mov.w	fp, #1
 800309a:	6b29      	ldr	r1, [r5, #48]	@ 0x30
 800309c:	4628      	mov	r0, r5
 800309e:	eb01 3119 	add.w	r1, r1, r9, lsr #12
 80030a2:	f7ff fd47 	bl	8002b34 <move_window>
 80030a6:	2800      	cmp	r0, #0
 80030a8:	d14c      	bne.n	8003144 <create_chain+0xe4>
 80030aa:	69ea      	ldr	r2, [r5, #28]
 80030ac:	f009 0307 	and.w	r3, r9, #7
 80030b0:	fa0b f303 	lsl.w	r3, fp, r3
 80030b4:	f3c9 01c8 	ubfx	r1, r9, #3, #9
 80030b8:	b2db      	uxtb	r3, r3
 80030ba:	1e90      	subs	r0, r2, #2
 80030bc:	186a      	adds	r2, r5, r1
 80030be:	464c      	mov	r4, r9
 80030c0:	f892 2038 	ldrb.w	r2, [r2, #56]	@ 0x38
 80030c4:	f109 0901 	add.w	r9, r9, #1
 80030c8:	4581      	cmp	r9, r0
 80030ca:	ea02 0203 	and.w	r2, r2, r3
 80030ce:	bf35      	itete	cc
 80030d0:	005b      	lslcc	r3, r3, #1
 80030d2:	2300      	movcs	r3, #0
 80030d4:	b2db      	uxtbcc	r3, r3
 80030d6:	4699      	movcs	r9, r3
 80030d8:	bf28      	it	cs
 80030da:	f44f 7100 	movcs.w	r1, #512	@ 0x200
 80030de:	bb3a      	cbnz	r2, 8003130 <create_chain+0xd0>
 80030e0:	3402      	adds	r4, #2
 80030e2:	1e63      	subs	r3, r4, #1
 80030e4:	3303      	adds	r3, #3
 80030e6:	d817      	bhi.n	8003118 <create_chain+0xb8>
 80030e8:	2301      	movs	r3, #1
 80030ea:	461a      	mov	r2, r3
 80030ec:	4621      	mov	r1, r4
 80030ee:	4628      	mov	r0, r5
 80030f0:	f7ff fd39 	bl	8002b66 <change_bitmap>
 80030f4:	2802      	cmp	r0, #2
 80030f6:	d00e      	beq.n	8003116 <create_chain+0xb6>
 80030f8:	2801      	cmp	r0, #1
 80030fa:	f000 8081 	beq.w	8003200 <create_chain+0x1a0>
 80030fe:	f1b8 0f00 	cmp.w	r8, #0
 8003102:	d124      	bne.n	800314e <create_chain+0xee>
 8003104:	2302      	movs	r3, #2
 8003106:	71f3      	strb	r3, [r6, #7]
 8003108:	b928      	cbnz	r0, 8003116 <create_chain+0xb6>
 800310a:	e042      	b.n	8003192 <create_chain+0x132>
 800310c:	f7ff fd68 	bl	8002be0 <get_fat>
 8003110:	2801      	cmp	r0, #1
 8003112:	4604      	mov	r4, r0
 8003114:	d803      	bhi.n	800311e <create_chain+0xbe>
 8003116:	2401      	movs	r4, #1
 8003118:	4620      	mov	r0, r4
 800311a:	e8bd 8ff8 	ldmia.w	sp!, {r3, r4, r5, r6, r7, r8, r9, sl, fp, pc}
 800311e:	1c43      	adds	r3, r0, #1
 8003120:	d06e      	beq.n	8003200 <create_chain+0x1a0>
 8003122:	69eb      	ldr	r3, [r5, #28]
 8003124:	4283      	cmp	r3, r0
 8003126:	d8f7      	bhi.n	8003118 <create_chain+0xb8>
 8003128:	4647      	mov	r7, r8
 800312a:	e7a7      	b.n	800307c <create_chain+0x1c>
 800312c:	2701      	movs	r7, #1
 800312e:	e7a5      	b.n	800307c <create_chain+0x1c>
 8003130:	45ca      	cmp	sl, r9
 8003132:	d00a      	beq.n	800314a <create_chain+0xea>
 8003134:	2b00      	cmp	r3, #0
 8003136:	d1c1      	bne.n	80030bc <create_chain+0x5c>
 8003138:	3101      	adds	r1, #1
 800313a:	f5b1 7f00 	cmp.w	r1, #512	@ 0x200
 800313e:	d2ac      	bcs.n	800309a <create_chain+0x3a>
 8003140:	2301      	movs	r3, #1
 8003142:	e7bb      	b.n	80030bc <create_chain+0x5c>
 8003144:	f04f 34ff 	mov.w	r4, #4294967295
 8003148:	e7cb      	b.n	80030e2 <create_chain+0x82>
 800314a:	2400      	movs	r4, #0
 800314c:	e7c9      	b.n	80030e2 <create_chain+0x82>
 800314e:	79f3      	ldrb	r3, [r6, #7]
 8003150:	2b02      	cmp	r3, #2
 8003152:	d107      	bne.n	8003164 <create_chain+0x104>
 8003154:	1c7b      	adds	r3, r7, #1
 8003156:	42a3      	cmp	r3, r4
 8003158:	d0d6      	beq.n	8003108 <create_chain+0xa8>
 800315a:	68b3      	ldr	r3, [r6, #8]
 800315c:	1afb      	subs	r3, r7, r3
 800315e:	61b3      	str	r3, [r6, #24]
 8003160:	2303      	movs	r3, #3
 8003162:	71f3      	strb	r3, [r6, #7]
 8003164:	f108 0201 	add.w	r2, r8, #1
 8003168:	42a2      	cmp	r2, r4
 800316a:	69f3      	ldr	r3, [r6, #28]
 800316c:	d105      	bne.n	800317a <create_chain+0x11a>
 800316e:	b113      	cbz	r3, 8003176 <create_chain+0x116>
 8003170:	3301      	adds	r3, #1
 8003172:	61f3      	str	r3, [r6, #28]
 8003174:	e7c8      	b.n	8003108 <create_chain+0xa8>
 8003176:	2302      	movs	r3, #2
 8003178:	e7fb      	b.n	8003172 <create_chain+0x112>
 800317a:	b90b      	cbnz	r3, 8003180 <create_chain+0x120>
 800317c:	2301      	movs	r3, #1
 800317e:	61f3      	str	r3, [r6, #28]
 8003180:	4622      	mov	r2, r4
 8003182:	4641      	mov	r1, r8
 8003184:	4630      	mov	r0, r6
 8003186:	f7ff fe82 	bl	8002e8e <fill_last_frag>
 800318a:	2800      	cmp	r0, #0
 800318c:	d136      	bne.n	80031fc <create_chain+0x19c>
 800318e:	2301      	movs	r3, #1
 8003190:	61f3      	str	r3, [r6, #28]
 8003192:	e9d5 3206 	ldrd	r3, r2, [r5, #24]
 8003196:	3a02      	subs	r2, #2
 8003198:	4293      	cmp	r3, r2
 800319a:	bf9c      	itt	ls
 800319c:	f103 33ff 	addls.w	r3, r3, #4294967295
 80031a0:	61ab      	strls	r3, [r5, #24]
 80031a2:	792b      	ldrb	r3, [r5, #4]
 80031a4:	616c      	str	r4, [r5, #20]
 80031a6:	f043 0301 	orr.w	r3, r3, #1
 80031aa:	712b      	strb	r3, [r5, #4]
 80031ac:	e7b4      	b.n	8003118 <create_chain+0xb8>
 80031ae:	463c      	mov	r4, r7
 80031b0:	69eb      	ldr	r3, [r5, #28]
 80031b2:	3401      	adds	r4, #1
 80031b4:	42a3      	cmp	r3, r4
 80031b6:	d804      	bhi.n	80031c2 <create_chain+0x162>
 80031b8:	2f01      	cmp	r7, #1
 80031ba:	d101      	bne.n	80031c0 <create_chain+0x160>
 80031bc:	2400      	movs	r4, #0
 80031be:	e7ab      	b.n	8003118 <create_chain+0xb8>
 80031c0:	2402      	movs	r4, #2
 80031c2:	4621      	mov	r1, r4
 80031c4:	4630      	mov	r0, r6
 80031c6:	f7ff fd0b 	bl	8002be0 <get_fat>
 80031ca:	b130      	cbz	r0, 80031da <create_chain+0x17a>
 80031cc:	2801      	cmp	r0, #1
 80031ce:	d0a2      	beq.n	8003116 <create_chain+0xb6>
 80031d0:	3001      	adds	r0, #1
 80031d2:	d015      	beq.n	8003200 <create_chain+0x1a0>
 80031d4:	42bc      	cmp	r4, r7
 80031d6:	d1eb      	bne.n	80031b0 <create_chain+0x150>
 80031d8:	e7f0      	b.n	80031bc <create_chain+0x15c>
 80031da:	f04f 32ff 	mov.w	r2, #4294967295
 80031de:	4621      	mov	r1, r4
 80031e0:	4628      	mov	r0, r5
 80031e2:	f7ff fdd6 	bl	8002d92 <put_fat>
 80031e6:	b948      	cbnz	r0, 80031fc <create_chain+0x19c>
 80031e8:	f1b8 0f00 	cmp.w	r8, #0
 80031ec:	d0d1      	beq.n	8003192 <create_chain+0x132>
 80031ee:	4622      	mov	r2, r4
 80031f0:	4641      	mov	r1, r8
 80031f2:	4628      	mov	r0, r5
 80031f4:	f7ff fdcd 	bl	8002d92 <put_fat>
 80031f8:	2800      	cmp	r0, #0
 80031fa:	d0ca      	beq.n	8003192 <create_chain+0x132>
 80031fc:	2801      	cmp	r0, #1
 80031fe:	d18a      	bne.n	8003116 <create_chain+0xb6>
 8003200:	f04f 34ff 	mov.w	r4, #4294967295
 8003204:	e788      	b.n	8003118 <create_chain+0xb8>

08003206 <dir_next>:
 8003206:	6b03      	ldr	r3, [r0, #48]	@ 0x30
 8003208:	e92d 47f0 	stmdb	sp!, {r4, r5, r6, r7, r8, r9, sl, lr}
 800320c:	f103 0820 	add.w	r8, r3, #32
 8003210:	6b83      	ldr	r3, [r0, #56]	@ 0x38
 8003212:	4605      	mov	r5, r0
 8003214:	468a      	mov	sl, r1
 8003216:	b1bb      	cbz	r3, 8003248 <dir_next+0x42>
 8003218:	6804      	ldr	r4, [r0, #0]
 800321a:	7822      	ldrb	r2, [r4, #0]
 800321c:	2a04      	cmp	r2, #4
 800321e:	bf14      	ite	ne
 8003220:	f44f 1200 	movne.w	r2, #2097152	@ 0x200000
 8003224:	f04f 5280 	moveq.w	r2, #268435456	@ 0x10000000
 8003228:	4542      	cmp	r2, r8
 800322a:	d90d      	bls.n	8003248 <dir_next+0x42>
 800322c:	f3c8 0708 	ubfx	r7, r8, #0, #9
 8003230:	2f00      	cmp	r7, #0
 8003232:	d152      	bne.n	80032da <dir_next+0xd4>
 8003234:	6b41      	ldr	r1, [r0, #52]	@ 0x34
 8003236:	3301      	adds	r3, #1
 8003238:	6383      	str	r3, [r0, #56]	@ 0x38
 800323a:	b941      	cbnz	r1, 800324e <dir_next+0x48>
 800323c:	8923      	ldrh	r3, [r4, #8]
 800323e:	ebb3 1f58 	cmp.w	r3, r8, lsr #5
 8003242:	d84a      	bhi.n	80032da <dir_next+0xd4>
 8003244:	2300      	movs	r3, #0
 8003246:	63ab      	str	r3, [r5, #56]	@ 0x38
 8003248:	2004      	movs	r0, #4
 800324a:	e8bd 87f0 	ldmia.w	sp!, {r4, r5, r6, r7, r8, r9, sl, pc}
 800324e:	f8b4 900a 	ldrh.w	r9, [r4, #10]
 8003252:	f109 39ff 	add.w	r9, r9, #4294967295
 8003256:	ea19 2958 	ands.w	r9, r9, r8, lsr #9
 800325a:	d13e      	bne.n	80032da <dir_next+0xd4>
 800325c:	f7ff fcc0 	bl	8002be0 <get_fat>
 8003260:	2801      	cmp	r0, #1
 8003262:	4606      	mov	r6, r0
 8003264:	d801      	bhi.n	800326a <dir_next+0x64>
 8003266:	2002      	movs	r0, #2
 8003268:	e7ef      	b.n	800324a <dir_next+0x44>
 800326a:	1c42      	adds	r2, r0, #1
 800326c:	d101      	bne.n	8003272 <dir_next+0x6c>
 800326e:	2001      	movs	r0, #1
 8003270:	e7eb      	b.n	800324a <dir_next+0x44>
 8003272:	69e3      	ldr	r3, [r4, #28]
 8003274:	4283      	cmp	r3, r0
 8003276:	d82a      	bhi.n	80032ce <dir_next+0xc8>
 8003278:	f1ba 0f00 	cmp.w	sl, #0
 800327c:	d0e2      	beq.n	8003244 <dir_next+0x3e>
 800327e:	6b69      	ldr	r1, [r5, #52]	@ 0x34
 8003280:	4628      	mov	r0, r5
 8003282:	f7ff feed 	bl	8003060 <create_chain>
 8003286:	4606      	mov	r6, r0
 8003288:	2800      	cmp	r0, #0
 800328a:	d039      	beq.n	8003300 <dir_next+0xfa>
 800328c:	2801      	cmp	r0, #1
 800328e:	d0ea      	beq.n	8003266 <dir_next+0x60>
 8003290:	1c43      	adds	r3, r0, #1
 8003292:	d0ec      	beq.n	800326e <dir_next+0x68>
 8003294:	79eb      	ldrb	r3, [r5, #7]
 8003296:	f043 0304 	orr.w	r3, r3, #4
 800329a:	71eb      	strb	r3, [r5, #7]
 800329c:	4620      	mov	r0, r4
 800329e:	f7ff fbf6 	bl	8002a8e <sync_window>
 80032a2:	4601      	mov	r1, r0
 80032a4:	2800      	cmp	r0, #0
 80032a6:	d1e2      	bne.n	800326e <dir_next+0x68>
 80032a8:	f104 0038 	add.w	r0, r4, #56	@ 0x38
 80032ac:	f44f 7200 	mov.w	r2, #512	@ 0x200
 80032b0:	f7ff fac5 	bl	800283e <mem_set>
 80032b4:	4631      	mov	r1, r6
 80032b6:	4620      	mov	r0, r4
 80032b8:	f7ff fb70 	bl	800299c <clust2sect>
 80032bc:	f04f 0a01 	mov.w	sl, #1
 80032c0:	8963      	ldrh	r3, [r4, #10]
 80032c2:	6360      	str	r0, [r4, #52]	@ 0x34
 80032c4:	454b      	cmp	r3, r9
 80032c6:	d80f      	bhi.n	80032e8 <dir_next+0xe2>
 80032c8:	eba0 0009 	sub.w	r0, r0, r9
 80032cc:	6360      	str	r0, [r4, #52]	@ 0x34
 80032ce:	636e      	str	r6, [r5, #52]	@ 0x34
 80032d0:	4631      	mov	r1, r6
 80032d2:	4620      	mov	r0, r4
 80032d4:	f7ff fb62 	bl	800299c <clust2sect>
 80032d8:	63a8      	str	r0, [r5, #56]	@ 0x38
 80032da:	3438      	adds	r4, #56	@ 0x38
 80032dc:	443c      	add	r4, r7
 80032de:	f8c5 8030 	str.w	r8, [r5, #48]	@ 0x30
 80032e2:	63ec      	str	r4, [r5, #60]	@ 0x3c
 80032e4:	2000      	movs	r0, #0
 80032e6:	e7b0      	b.n	800324a <dir_next+0x44>
 80032e8:	f884 a003 	strb.w	sl, [r4, #3]
 80032ec:	4620      	mov	r0, r4
 80032ee:	f7ff fbce 	bl	8002a8e <sync_window>
 80032f2:	2800      	cmp	r0, #0
 80032f4:	d1bb      	bne.n	800326e <dir_next+0x68>
 80032f6:	6b60      	ldr	r0, [r4, #52]	@ 0x34
 80032f8:	f109 0901 	add.w	r9, r9, #1
 80032fc:	3001      	adds	r0, #1
 80032fe:	e7df      	b.n	80032c0 <dir_next+0xba>
 8003300:	2007      	movs	r0, #7
 8003302:	e7a2      	b.n	800324a <dir_next+0x44>

08003304 <load_xdir>:
 8003304:	e92d 41f0 	stmdb	sp!, {r4, r5, r6, r7, r8, lr}
 8003308:	4605      	mov	r5, r0
 800330a:	6800      	ldr	r0, [r0, #0]
 800330c:	6ba9      	ldr	r1, [r5, #56]	@ 0x38
 800330e:	6906      	ldr	r6, [r0, #16]
 8003310:	f7ff fc10 	bl	8002b34 <move_window>
 8003314:	4604      	mov	r4, r0
 8003316:	b920      	cbnz	r0, 8003322 <load_xdir+0x1e>
 8003318:	6be9      	ldr	r1, [r5, #60]	@ 0x3c
 800331a:	780b      	ldrb	r3, [r1, #0]
 800331c:	2b85      	cmp	r3, #133	@ 0x85
 800331e:	d003      	beq.n	8003328 <load_xdir+0x24>
 8003320:	2402      	movs	r4, #2
 8003322:	4620      	mov	r0, r4
 8003324:	e8bd 81f0 	ldmia.w	sp!, {r4, r5, r6, r7, r8, pc}
 8003328:	2220      	movs	r2, #32
 800332a:	4630      	mov	r0, r6
 800332c:	f7ff fbed 	bl	8002b0a <mem_cpy.part.0>
 8003330:	7877      	ldrb	r7, [r6, #1]
 8003332:	3701      	adds	r7, #1
 8003334:	017f      	lsls	r7, r7, #5
 8003336:	f1a7 0360 	sub.w	r3, r7, #96	@ 0x60
 800333a:	f5b3 7f00 	cmp.w	r3, #512	@ 0x200
 800333e:	d8ef      	bhi.n	8003320 <load_xdir+0x1c>
 8003340:	4621      	mov	r1, r4
 8003342:	4628      	mov	r0, r5
 8003344:	f7ff ff5f 	bl	8003206 <dir_next>
 8003348:	4604      	mov	r4, r0
 800334a:	2800      	cmp	r0, #0
 800334c:	d1e9      	bne.n	8003322 <load_xdir+0x1e>
 800334e:	6ba9      	ldr	r1, [r5, #56]	@ 0x38
 8003350:	6828      	ldr	r0, [r5, #0]
 8003352:	f7ff fbef 	bl	8002b34 <move_window>
 8003356:	4604      	mov	r4, r0
 8003358:	2800      	cmp	r0, #0
 800335a:	d1e2      	bne.n	8003322 <load_xdir+0x1e>
 800335c:	6be9      	ldr	r1, [r5, #60]	@ 0x3c
 800335e:	780b      	ldrb	r3, [r1, #0]
 8003360:	2bc0      	cmp	r3, #192	@ 0xc0
 8003362:	d1dd      	bne.n	8003320 <load_xdir+0x1c>
 8003364:	2220      	movs	r2, #32
 8003366:	18b0      	adds	r0, r6, r2
 8003368:	f7ff fbcf 	bl	8002b0a <mem_cpy.part.0>
 800336c:	f896 3023 	ldrb.w	r3, [r6, #35]	@ 0x23
 8003370:	220f      	movs	r2, #15
 8003372:	332c      	adds	r3, #44	@ 0x2c
 8003374:	fbb3 f3f2 	udiv	r3, r3, r2
 8003378:	ebb7 1f43 	cmp.w	r7, r3, lsl #5
 800337c:	d3d0      	bcc.n	8003320 <load_xdir+0x1c>
 800337e:	f04f 0840 	mov.w	r8, #64	@ 0x40
 8003382:	2100      	movs	r1, #0
 8003384:	4628      	mov	r0, r5
 8003386:	f7ff ff3e 	bl	8003206 <dir_next>
 800338a:	4604      	mov	r4, r0
 800338c:	2800      	cmp	r0, #0
 800338e:	d1c8      	bne.n	8003322 <load_xdir+0x1e>
 8003390:	6ba9      	ldr	r1, [r5, #56]	@ 0x38
 8003392:	6828      	ldr	r0, [r5, #0]
 8003394:	f7ff fbce 	bl	8002b34 <move_window>
 8003398:	4604      	mov	r4, r0
 800339a:	2800      	cmp	r0, #0
 800339c:	d1c1      	bne.n	8003322 <load_xdir+0x1e>
 800339e:	6be9      	ldr	r1, [r5, #60]	@ 0x3c
 80033a0:	780b      	ldrb	r3, [r1, #0]
 80033a2:	2bc1      	cmp	r3, #193	@ 0xc1
 80033a4:	d1bc      	bne.n	8003320 <load_xdir+0x1c>
 80033a6:	eb06 0008 	add.w	r0, r6, r8
 80033aa:	2220      	movs	r2, #32
 80033ac:	f108 0820 	add.w	r8, r8, #32
 80033b0:	f7ff fbab 	bl	8002b0a <mem_cpy.part.0>
 80033b4:	4547      	cmp	r7, r8
 80033b6:	d8e4      	bhi.n	8003382 <load_xdir+0x7e>
 80033b8:	4630      	mov	r0, r6
 80033ba:	f7ff fb21 	bl	8002a00 <xdir_sum>
 80033be:	8874      	ldrh	r4, [r6, #2]
 80033c0:	1a24      	subs	r4, r4, r0
 80033c2:	bf18      	it	ne
 80033c4:	2401      	movne	r4, #1
 80033c6:	0064      	lsls	r4, r4, #1
 80033c8:	e7ab      	b.n	8003322 <load_xdir+0x1e>

080033ca <dir_alloc>:
 80033ca:	b5f8      	push	{r3, r4, r5, r6, r7, lr}
 80033cc:	460e      	mov	r6, r1
 80033ce:	2100      	movs	r1, #0
 80033d0:	6807      	ldr	r7, [r0, #0]
 80033d2:	4604      	mov	r4, r0
 80033d4:	f7ff fc95 	bl	8002d02 <dir_sdi>
 80033d8:	b998      	cbnz	r0, 8003402 <dir_alloc+0x38>
 80033da:	4605      	mov	r5, r0
 80033dc:	6ba1      	ldr	r1, [r4, #56]	@ 0x38
 80033de:	4638      	mov	r0, r7
 80033e0:	f7ff fba8 	bl	8002b34 <move_window>
 80033e4:	b968      	cbnz	r0, 8003402 <dir_alloc+0x38>
 80033e6:	783a      	ldrb	r2, [r7, #0]
 80033e8:	6be3      	ldr	r3, [r4, #60]	@ 0x3c
 80033ea:	2a04      	cmp	r2, #4
 80033ec:	781b      	ldrb	r3, [r3, #0]
 80033ee:	d10c      	bne.n	800340a <dir_alloc+0x40>
 80033f0:	061b      	lsls	r3, r3, #24
 80033f2:	d50e      	bpl.n	8003412 <dir_alloc+0x48>
 80033f4:	4605      	mov	r5, r0
 80033f6:	2101      	movs	r1, #1
 80033f8:	4620      	mov	r0, r4
 80033fa:	f7ff ff04 	bl	8003206 <dir_next>
 80033fe:	2800      	cmp	r0, #0
 8003400:	d0ec      	beq.n	80033dc <dir_alloc+0x12>
 8003402:	2804      	cmp	r0, #4
 8003404:	bf08      	it	eq
 8003406:	2007      	moveq	r0, #7
 8003408:	e006      	b.n	8003418 <dir_alloc+0x4e>
 800340a:	2be5      	cmp	r3, #229	@ 0xe5
 800340c:	d001      	beq.n	8003412 <dir_alloc+0x48>
 800340e:	2b00      	cmp	r3, #0
 8003410:	d1f0      	bne.n	80033f4 <dir_alloc+0x2a>
 8003412:	3501      	adds	r5, #1
 8003414:	42b5      	cmp	r5, r6
 8003416:	d1ee      	bne.n	80033f6 <dir_alloc+0x2c>
 8003418:	bdf8      	pop	{r3, r4, r5, r6, r7, pc}

0800341a <store_xdir>:
 800341a:	6803      	ldr	r3, [r0, #0]
 800341c:	e92d 41f0 	stmdb	sp!, {r4, r5, r6, r7, r8, lr}
 8003420:	691e      	ldr	r6, [r3, #16]
 8003422:	4605      	mov	r5, r0
 8003424:	4630      	mov	r0, r6
 8003426:	f7ff faeb 	bl	8002a00 <xdir_sum>
 800342a:	70b0      	strb	r0, [r6, #2]
 800342c:	0a00      	lsrs	r0, r0, #8
 800342e:	70f0      	strb	r0, [r6, #3]
 8003430:	6ce9      	ldr	r1, [r5, #76]	@ 0x4c
 8003432:	7877      	ldrb	r7, [r6, #1]
 8003434:	4628      	mov	r0, r5
 8003436:	f7ff fc64 	bl	8002d02 <dir_sdi>
 800343a:	f04f 0801 	mov.w	r8, #1
 800343e:	4604      	mov	r4, r0
 8003440:	b12c      	cbz	r4, 800344e <store_xdir+0x34>
 8003442:	2c02      	cmp	r4, #2
 8003444:	bf28      	it	cs
 8003446:	2402      	movcs	r4, #2
 8003448:	b2e0      	uxtb	r0, r4
 800344a:	e8bd 81f0 	ldmia.w	sp!, {r4, r5, r6, r7, r8, pc}
 800344e:	6ba9      	ldr	r1, [r5, #56]	@ 0x38
 8003450:	6828      	ldr	r0, [r5, #0]
 8003452:	f7ff fb6f 	bl	8002b34 <move_window>
 8003456:	4604      	mov	r4, r0
 8003458:	2800      	cmp	r0, #0
 800345a:	d1f2      	bne.n	8003442 <store_xdir+0x28>
 800345c:	6be8      	ldr	r0, [r5, #60]	@ 0x3c
 800345e:	2220      	movs	r2, #32
 8003460:	4631      	mov	r1, r6
 8003462:	f7ff fb52 	bl	8002b0a <mem_cpy.part.0>
 8003466:	682b      	ldr	r3, [r5, #0]
 8003468:	f883 8003 	strb.w	r8, [r3, #3]
 800346c:	2f00      	cmp	r7, #0
 800346e:	d0e8      	beq.n	8003442 <store_xdir+0x28>
 8003470:	4621      	mov	r1, r4
 8003472:	4628      	mov	r0, r5
 8003474:	f7ff fec7 	bl	8003206 <dir_next>
 8003478:	3620      	adds	r6, #32
 800347a:	4604      	mov	r4, r0
 800347c:	3f01      	subs	r7, #1
 800347e:	e7df      	b.n	8003440 <store_xdir+0x26>

08003480 <dir_remove>:
 8003480:	6cc1      	ldr	r1, [r0, #76]	@ 0x4c
 8003482:	b5f8      	push	{r3, r4, r5, r6, r7, lr}
 8003484:	1c4b      	adds	r3, r1, #1
 8003486:	6805      	ldr	r5, [r0, #0]
 8003488:	6b06      	ldr	r6, [r0, #48]	@ 0x30
 800348a:	4604      	mov	r4, r0
 800348c:	d11c      	bne.n	80034c8 <dir_remove+0x48>
 800348e:	2701      	movs	r7, #1
 8003490:	6ba1      	ldr	r1, [r4, #56]	@ 0x38
 8003492:	4628      	mov	r0, r5
 8003494:	f7ff fb4e 	bl	8002b34 <move_window>
 8003498:	b990      	cbnz	r0, 80034c0 <dir_remove+0x40>
 800349a:	782b      	ldrb	r3, [r5, #0]
 800349c:	6be2      	ldr	r2, [r4, #60]	@ 0x3c
 800349e:	2b04      	cmp	r3, #4
 80034a0:	bf0a      	itet	eq
 80034a2:	7813      	ldrbeq	r3, [r2, #0]
 80034a4:	23e5      	movne	r3, #229	@ 0xe5
 80034a6:	f003 037f 	andeq.w	r3, r3, #127	@ 0x7f
 80034aa:	7013      	strb	r3, [r2, #0]
 80034ac:	70ef      	strb	r7, [r5, #3]
 80034ae:	6b23      	ldr	r3, [r4, #48]	@ 0x30
 80034b0:	42b3      	cmp	r3, r6
 80034b2:	d20d      	bcs.n	80034d0 <dir_remove+0x50>
 80034b4:	2100      	movs	r1, #0
 80034b6:	4620      	mov	r0, r4
 80034b8:	f7ff fea5 	bl	8003206 <dir_next>
 80034bc:	2800      	cmp	r0, #0
 80034be:	d0e7      	beq.n	8003490 <dir_remove+0x10>
 80034c0:	2804      	cmp	r0, #4
 80034c2:	bf08      	it	eq
 80034c4:	2002      	moveq	r0, #2
 80034c6:	e003      	b.n	80034d0 <dir_remove+0x50>
 80034c8:	f7ff fc1b 	bl	8002d02 <dir_sdi>
 80034cc:	2800      	cmp	r0, #0
 80034ce:	d0de      	beq.n	800348e <dir_remove+0xe>
 80034d0:	bdf8      	pop	{r3, r4, r5, r6, r7, pc}
	...

080034d4 <dir_read.constprop.0>:
 80034d4:	e92d 43f8 	stmdb	sp!, {r3, r4, r5, r6, r7, r8, r9, lr}
 80034d8:	27ff      	movs	r7, #255	@ 0xff
 80034da:	6806      	ldr	r6, [r0, #0]
 80034dc:	4604      	mov	r4, r0
 80034de:	463d      	mov	r5, r7
 80034e0:	2004      	movs	r0, #4
 80034e2:	6ba1      	ldr	r1, [r4, #56]	@ 0x38
 80034e4:	b911      	cbnz	r1, 80034ec <dir_read.constprop.0+0x18>
 80034e6:	b1d8      	cbz	r0, 8003520 <dir_read.constprop.0+0x4c>
 80034e8:	2004      	movs	r0, #4
 80034ea:	e063      	b.n	80035b4 <dir_read.constprop.0+0xe0>
 80034ec:	4630      	mov	r0, r6
 80034ee:	f7ff fb21 	bl	8002b34 <move_window>
 80034f2:	2800      	cmp	r0, #0
 80034f4:	d15e      	bne.n	80035b4 <dir_read.constprop.0+0xe0>
 80034f6:	6be0      	ldr	r0, [r4, #60]	@ 0x3c
 80034f8:	7803      	ldrb	r3, [r0, #0]
 80034fa:	2b00      	cmp	r3, #0
 80034fc:	d0f4      	beq.n	80034e8 <dir_read.constprop.0+0x14>
 80034fe:	7832      	ldrb	r2, [r6, #0]
 8003500:	2a04      	cmp	r2, #4
 8003502:	d110      	bne.n	8003526 <dir_read.constprop.0+0x52>
 8003504:	2b85      	cmp	r3, #133	@ 0x85
 8003506:	d14f      	bne.n	80035a8 <dir_read.constprop.0+0xd4>
 8003508:	6b23      	ldr	r3, [r4, #48]	@ 0x30
 800350a:	64e3      	str	r3, [r4, #76]	@ 0x4c
 800350c:	4620      	mov	r0, r4
 800350e:	f7ff fef9 	bl	8003304 <load_xdir>
 8003512:	2800      	cmp	r0, #0
 8003514:	d14e      	bne.n	80035b4 <dir_read.constprop.0+0xe0>
 8003516:	6933      	ldr	r3, [r6, #16]
 8003518:	791b      	ldrb	r3, [r3, #4]
 800351a:	f003 033f 	and.w	r3, r3, #63	@ 0x3f
 800351e:	71a3      	strb	r3, [r4, #6]
 8003520:	2000      	movs	r0, #0
 8003522:	e8bd 83f8 	ldmia.w	sp!, {r3, r4, r5, r6, r7, r8, r9, pc}
 8003526:	7ac2      	ldrb	r2, [r0, #11]
 8003528:	2be5      	cmp	r3, #229	@ 0xe5
 800352a:	f002 023f 	and.w	r2, r2, #63	@ 0x3f
 800352e:	71a2      	strb	r2, [r4, #6]
 8003530:	d045      	beq.n	80035be <dir_read.constprop.0+0xea>
 8003532:	2b2e      	cmp	r3, #46	@ 0x2e
 8003534:	d043      	beq.n	80035be <dir_read.constprop.0+0xea>
 8003536:	f022 0120 	bic.w	r1, r2, #32
 800353a:	2908      	cmp	r1, #8
 800353c:	d03f      	beq.n	80035be <dir_read.constprop.0+0xea>
 800353e:	2a0f      	cmp	r2, #15
 8003540:	d142      	bne.n	80035c8 <dir_read.constprop.0+0xf4>
 8003542:	0659      	lsls	r1, r3, #25
 8003544:	d539      	bpl.n	80035ba <dir_read.constprop.0+0xe6>
 8003546:	f003 05bf 	and.w	r5, r3, #191	@ 0xbf
 800354a:	6b23      	ldr	r3, [r4, #48]	@ 0x30
 800354c:	7b47      	ldrb	r7, [r0, #13]
 800354e:	64e3      	str	r3, [r4, #76]	@ 0x4c
 8003550:	7b43      	ldrb	r3, [r0, #13]
 8003552:	42bb      	cmp	r3, r7
 8003554:	d133      	bne.n	80035be <dir_read.constprop.0+0xea>
 8003556:	8b42      	ldrh	r2, [r0, #26]
 8003558:	bb8a      	cbnz	r2, 80035be <dir_read.constprop.0+0xea>
 800355a:	7803      	ldrb	r3, [r0, #0]
 800355c:	f8d6 c00c 	ldr.w	ip, [r6, #12]
 8003560:	f8df e078 	ldr.w	lr, [pc, #120]	@ 80035dc <dir_read.constprop.0+0x108>
 8003564:	f023 0340 	bic.w	r3, r3, #64	@ 0x40
 8003568:	3b01      	subs	r3, #1
 800356a:	210d      	movs	r1, #13
 800356c:	434b      	muls	r3, r1
 800356e:	f04f 0801 	mov.w	r8, #1
 8003572:	f64f 79ff 	movw	r9, #65535	@ 0xffff
 8003576:	f81e 1b01 	ldrb.w	r1, [lr], #1
 800357a:	5a41      	ldrh	r1, [r0, r1]
 800357c:	f1b8 0f00 	cmp.w	r8, #0
 8003580:	d01f      	beq.n	80035c2 <dir_read.constprop.0+0xee>
 8003582:	2bfe      	cmp	r3, #254	@ 0xfe
 8003584:	d81b      	bhi.n	80035be <dir_read.constprop.0+0xea>
 8003586:	f82c 1013 	strh.w	r1, [ip, r3, lsl #1]
 800358a:	4688      	mov	r8, r1
 800358c:	3301      	adds	r3, #1
 800358e:	3201      	adds	r2, #1
 8003590:	2a0d      	cmp	r2, #13
 8003592:	d1f0      	bne.n	8003576 <dir_read.constprop.0+0xa2>
 8003594:	7802      	ldrb	r2, [r0, #0]
 8003596:	0652      	lsls	r2, r2, #25
 8003598:	d504      	bpl.n	80035a4 <dir_read.constprop.0+0xd0>
 800359a:	2bfe      	cmp	r3, #254	@ 0xfe
 800359c:	d80f      	bhi.n	80035be <dir_read.constprop.0+0xea>
 800359e:	2200      	movs	r2, #0
 80035a0:	f82c 2013 	strh.w	r2, [ip, r3, lsl #1]
 80035a4:	3d01      	subs	r5, #1
 80035a6:	b2ed      	uxtb	r5, r5
 80035a8:	2100      	movs	r1, #0
 80035aa:	4620      	mov	r0, r4
 80035ac:	f7ff fe2b 	bl	8003206 <dir_next>
 80035b0:	2800      	cmp	r0, #0
 80035b2:	d096      	beq.n	80034e2 <dir_read.constprop.0+0xe>
 80035b4:	2300      	movs	r3, #0
 80035b6:	63a3      	str	r3, [r4, #56]	@ 0x38
 80035b8:	e7b3      	b.n	8003522 <dir_read.constprop.0+0x4e>
 80035ba:	42ab      	cmp	r3, r5
 80035bc:	d0c8      	beq.n	8003550 <dir_read.constprop.0+0x7c>
 80035be:	25ff      	movs	r5, #255	@ 0xff
 80035c0:	e7f2      	b.n	80035a8 <dir_read.constprop.0+0xd4>
 80035c2:	4549      	cmp	r1, r9
 80035c4:	d0e3      	beq.n	800358e <dir_read.constprop.0+0xba>
 80035c6:	e7fa      	b.n	80035be <dir_read.constprop.0+0xea>
 80035c8:	b91d      	cbnz	r5, 80035d2 <dir_read.constprop.0+0xfe>
 80035ca:	f7ff fa0a 	bl	80029e2 <sum_sfn>
 80035ce:	42b8      	cmp	r0, r7
 80035d0:	d0a6      	beq.n	8003520 <dir_read.constprop.0+0x4c>
 80035d2:	f04f 33ff 	mov.w	r3, #4294967295
 80035d6:	64e3      	str	r3, [r4, #76]	@ 0x4c
 80035d8:	e7a2      	b.n	8003520 <dir_read.constprop.0+0x4c>
 80035da:	bf00      	nop
 80035dc:	080052fb 	.word	0x080052fb

080035e0 <dir_find>:
 80035e0:	e92d 4ff0 	stmdb	sp!, {r4, r5, r6, r7, r8, r9, sl, fp, lr}
 80035e4:	2100      	movs	r1, #0
 80035e6:	b087      	sub	sp, #28
 80035e8:	f8d0 8000 	ldr.w	r8, [r0]
 80035ec:	4604      	mov	r4, r0
 80035ee:	f7ff fb88 	bl	8002d02 <dir_sdi>
 80035f2:	4607      	mov	r7, r0
 80035f4:	bb98      	cbnz	r0, 800365e <dir_find+0x7e>
 80035f6:	f898 3000 	ldrb.w	r3, [r8]
 80035fa:	2b04      	cmp	r3, #4
 80035fc:	d136      	bne.n	800366c <dir_find+0x8c>
 80035fe:	f8d8 000c 	ldr.w	r0, [r8, #12]
 8003602:	f7ff fa69 	bl	8002ad8 <xname_sum>
 8003606:	4681      	mov	r9, r0
 8003608:	4620      	mov	r0, r4
 800360a:	f7ff ff63 	bl	80034d4 <dir_read.constprop.0>
 800360e:	4605      	mov	r5, r0
 8003610:	b108      	cbz	r0, 8003616 <dir_find+0x36>
 8003612:	4607      	mov	r7, r0
 8003614:	e023      	b.n	800365e <dir_find+0x7e>
 8003616:	f8d8 3010 	ldr.w	r3, [r8, #16]
 800361a:	8c9a      	ldrh	r2, [r3, #36]	@ 0x24
 800361c:	454a      	cmp	r2, r9
 800361e:	d1f3      	bne.n	8003608 <dir_find+0x28>
 8003620:	f893 b023 	ldrb.w	fp, [r3, #35]	@ 0x23
 8003624:	2640      	movs	r6, #64	@ 0x40
 8003626:	455d      	cmp	r5, fp
 8003628:	d010      	beq.n	800364c <dir_find+0x6c>
 800362a:	06f0      	lsls	r0, r6, #27
 800362c:	bf08      	it	eq
 800362e:	3602      	addeq	r6, #2
 8003630:	f8d8 3010 	ldr.w	r3, [r8, #16]
 8003634:	5b98      	ldrh	r0, [r3, r6]
 8003636:	f001 fc0b 	bl	8004e50 <ff_wtoupper>
 800363a:	f8d8 300c 	ldr.w	r3, [r8, #12]
 800363e:	4682      	mov	sl, r0
 8003640:	f833 0015 	ldrh.w	r0, [r3, r5, lsl #1]
 8003644:	f001 fc04 	bl	8004e50 <ff_wtoupper>
 8003648:	4582      	cmp	sl, r0
 800364a:	d00c      	beq.n	8003666 <dir_find+0x86>
 800364c:	b2eb      	uxtb	r3, r5
 800364e:	459b      	cmp	fp, r3
 8003650:	d1da      	bne.n	8003608 <dir_find+0x28>
 8003652:	f8d8 300c 	ldr.w	r3, [r8, #12]
 8003656:	f833 3015 	ldrh.w	r3, [r3, r5, lsl #1]
 800365a:	2b00      	cmp	r3, #0
 800365c:	d1d4      	bne.n	8003608 <dir_find+0x28>
 800365e:	4638      	mov	r0, r7
 8003660:	b007      	add	sp, #28
 8003662:	e8bd 8ff0 	ldmia.w	sp!, {r4, r5, r6, r7, r8, r9, sl, fp, pc}
 8003666:	3602      	adds	r6, #2
 8003668:	3501      	adds	r5, #1
 800366a:	e7dc      	b.n	8003626 <dir_find+0x46>
 800366c:	f04f 3aff 	mov.w	sl, #4294967295
 8003670:	f04f 09ff 	mov.w	r9, #255	@ 0xff
 8003674:	f8c4 a04c 	str.w	sl, [r4, #76]	@ 0x4c
 8003678:	464e      	mov	r6, r9
 800367a:	6ba1      	ldr	r1, [r4, #56]	@ 0x38
 800367c:	4640      	mov	r0, r8
 800367e:	f7ff fa59 	bl	8002b34 <move_window>
 8003682:	2800      	cmp	r0, #0
 8003684:	d15b      	bne.n	800373e <dir_find+0x15e>
 8003686:	6be5      	ldr	r5, [r4, #60]	@ 0x3c
 8003688:	782b      	ldrb	r3, [r5, #0]
 800368a:	2b00      	cmp	r3, #0
 800368c:	d07f      	beq.n	800378e <dir_find+0x1ae>
 800368e:	7ae9      	ldrb	r1, [r5, #11]
 8003690:	2be5      	cmp	r3, #229	@ 0xe5
 8003692:	f001 023f 	and.w	r2, r1, #63	@ 0x3f
 8003696:	71a2      	strb	r2, [r4, #6]
 8003698:	d003      	beq.n	80036a2 <dir_find+0xc2>
 800369a:	0709      	lsls	r1, r1, #28
 800369c:	d504      	bpl.n	80036a8 <dir_find+0xc8>
 800369e:	2a0f      	cmp	r2, #15
 80036a0:	d004      	beq.n	80036ac <dir_find+0xcc>
 80036a2:	f8c4 a04c 	str.w	sl, [r4, #76]	@ 0x4c
 80036a6:	e04e      	b.n	8003746 <dir_find+0x166>
 80036a8:	2a0f      	cmp	r2, #15
 80036aa:	d153      	bne.n	8003754 <dir_find+0x174>
 80036ac:	f894 204b 	ldrb.w	r2, [r4, #75]	@ 0x4b
 80036b0:	0650      	lsls	r0, r2, #25
 80036b2:	d43e      	bmi.n	8003732 <dir_find+0x152>
 80036b4:	0659      	lsls	r1, r3, #25
 80036b6:	d544      	bpl.n	8003742 <dir_find+0x162>
 80036b8:	6b22      	ldr	r2, [r4, #48]	@ 0x30
 80036ba:	f895 900d 	ldrb.w	r9, [r5, #13]
 80036be:	64e2      	str	r2, [r4, #76]	@ 0x4c
 80036c0:	f003 03bf 	and.w	r3, r3, #191	@ 0xbf
 80036c4:	7b6a      	ldrb	r2, [r5, #13]
 80036c6:	454a      	cmp	r2, r9
 80036c8:	d13d      	bne.n	8003746 <dir_find+0x166>
 80036ca:	8b6a      	ldrh	r2, [r5, #26]
 80036cc:	2a00      	cmp	r2, #0
 80036ce:	d13a      	bne.n	8003746 <dir_find+0x166>
 80036d0:	782e      	ldrb	r6, [r5, #0]
 80036d2:	f8d8 b00c 	ldr.w	fp, [r8, #12]
 80036d6:	f006 063f 	and.w	r6, r6, #63	@ 0x3f
 80036da:	220d      	movs	r2, #13
 80036dc:	3e01      	subs	r6, #1
 80036de:	4356      	muls	r6, r2
 80036e0:	4a2c      	ldr	r2, [pc, #176]	@ (8003794 <dir_find+0x1b4>)
 80036e2:	2001      	movs	r0, #1
 80036e4:	f812 1b01 	ldrb.w	r1, [r2], #1
 80036e8:	5a69      	ldrh	r1, [r5, r1]
 80036ea:	b370      	cbz	r0, 800374a <dir_find+0x16a>
 80036ec:	2efe      	cmp	r6, #254	@ 0xfe
 80036ee:	d82a      	bhi.n	8003746 <dir_find+0x166>
 80036f0:	4608      	mov	r0, r1
 80036f2:	e9cd 3204 	strd	r3, r2, [sp, #16]
 80036f6:	9103      	str	r1, [sp, #12]
 80036f8:	f001 fbaa 	bl	8004e50 <ff_wtoupper>
 80036fc:	1c73      	adds	r3, r6, #1
 80036fe:	9002      	str	r0, [sp, #8]
 8003700:	f83b 0016 	ldrh.w	r0, [fp, r6, lsl #1]
 8003704:	9301      	str	r3, [sp, #4]
 8003706:	f001 fba3 	bl	8004e50 <ff_wtoupper>
 800370a:	9b02      	ldr	r3, [sp, #8]
 800370c:	4283      	cmp	r3, r0
 800370e:	d11a      	bne.n	8003746 <dir_find+0x166>
 8003710:	9903      	ldr	r1, [sp, #12]
 8003712:	9e01      	ldr	r6, [sp, #4]
 8003714:	e9dd 3204 	ldrd	r3, r2, [sp, #16]
 8003718:	4608      	mov	r0, r1
 800371a:	491f      	ldr	r1, [pc, #124]	@ (8003798 <dir_find+0x1b8>)
 800371c:	4291      	cmp	r1, r2
 800371e:	d1e1      	bne.n	80036e4 <dir_find+0x104>
 8003720:	782a      	ldrb	r2, [r5, #0]
 8003722:	0652      	lsls	r2, r2, #25
 8003724:	d503      	bpl.n	800372e <dir_find+0x14e>
 8003726:	b110      	cbz	r0, 800372e <dir_find+0x14e>
 8003728:	f83b 2016 	ldrh.w	r2, [fp, r6, lsl #1]
 800372c:	b95a      	cbnz	r2, 8003746 <dir_find+0x166>
 800372e:	3b01      	subs	r3, #1
 8003730:	b2de      	uxtb	r6, r3
 8003732:	2100      	movs	r1, #0
 8003734:	4620      	mov	r0, r4
 8003736:	f7ff fd66 	bl	8003206 <dir_next>
 800373a:	2800      	cmp	r0, #0
 800373c:	d09d      	beq.n	800367a <dir_find+0x9a>
 800373e:	4607      	mov	r7, r0
 8003740:	e78d      	b.n	800365e <dir_find+0x7e>
 8003742:	429e      	cmp	r6, r3
 8003744:	d0be      	beq.n	80036c4 <dir_find+0xe4>
 8003746:	26ff      	movs	r6, #255	@ 0xff
 8003748:	e7f3      	b.n	8003732 <dir_find+0x152>
 800374a:	f64f 7cff 	movw	ip, #65535	@ 0xffff
 800374e:	4561      	cmp	r1, ip
 8003750:	d0e3      	beq.n	800371a <dir_find+0x13a>
 8003752:	e7f8      	b.n	8003746 <dir_find+0x166>
 8003754:	b92e      	cbnz	r6, 8003762 <dir_find+0x182>
 8003756:	4628      	mov	r0, r5
 8003758:	f7ff f943 	bl	80029e2 <sum_sfn>
 800375c:	4548      	cmp	r0, r9
 800375e:	f43f af7e 	beq.w	800365e <dir_find+0x7e>
 8003762:	f894 304b 	ldrb.w	r3, [r4, #75]	@ 0x4b
 8003766:	07db      	lsls	r3, r3, #31
 8003768:	d49b      	bmi.n	80036a2 <dir_find+0xc2>
 800376a:	f104 0240 	add.w	r2, r4, #64	@ 0x40
 800376e:	f105 010b 	add.w	r1, r5, #11
 8003772:	f815 3b01 	ldrb.w	r3, [r5], #1
 8003776:	f812 0b01 	ldrb.w	r0, [r2], #1
 800377a:	428d      	cmp	r5, r1
 800377c:	eba3 0300 	sub.w	r3, r3, r0
 8003780:	d002      	beq.n	8003788 <dir_find+0x1a8>
 8003782:	2b00      	cmp	r3, #0
 8003784:	d0f5      	beq.n	8003772 <dir_find+0x192>
 8003786:	e78c      	b.n	80036a2 <dir_find+0xc2>
 8003788:	2b00      	cmp	r3, #0
 800378a:	d18a      	bne.n	80036a2 <dir_find+0xc2>
 800378c:	e767      	b.n	800365e <dir_find+0x7e>
 800378e:	2704      	movs	r7, #4
 8003790:	e765      	b.n	800365e <dir_find+0x7e>
 8003792:	bf00      	nop
 8003794:	080052fb 	.word	0x080052fb
 8003798:	08005308 	.word	0x08005308

0800379c <dir_register>:
 800379c:	e92d 4ff0 	stmdb	sp!, {r4, r5, r6, r7, r8, r9, sl, fp, lr}
 80037a0:	f890 504b 	ldrb.w	r5, [r0, #75]	@ 0x4b
 80037a4:	f015 05a0 	ands.w	r5, r5, #160	@ 0xa0
 80037a8:	b099      	sub	sp, #100	@ 0x64
 80037aa:	4604      	mov	r4, r0
 80037ac:	f040 8175 	bne.w	8003a9a <dir_register+0x2fe>
 80037b0:	6806      	ldr	r6, [r0, #0]
 80037b2:	68f2      	ldr	r2, [r6, #12]
 80037b4:	f832 3015 	ldrh.w	r3, [r2, r5, lsl #1]
 80037b8:	2b00      	cmp	r3, #0
 80037ba:	d150      	bne.n	800385e <dir_register+0xc2>
 80037bc:	7833      	ldrb	r3, [r6, #0]
 80037be:	2b04      	cmp	r3, #4
 80037c0:	f040 8096 	bne.w	80038f0 <dir_register+0x154>
 80037c4:	230f      	movs	r3, #15
 80037c6:	350e      	adds	r5, #14
 80037c8:	4620      	mov	r0, r4
 80037ca:	fbb5 f5f3 	udiv	r5, r5, r3
 80037ce:	1ca9      	adds	r1, r5, #2
 80037d0:	f7ff fdfb 	bl	80033ca <dir_alloc>
 80037d4:	4681      	mov	r9, r0
 80037d6:	2800      	cmp	r0, #0
 80037d8:	d13d      	bne.n	8003856 <dir_register+0xba>
 80037da:	6b23      	ldr	r3, [r4, #48]	@ 0x30
 80037dc:	3501      	adds	r5, #1
 80037de:	eba3 1345 	sub.w	r3, r3, r5, lsl #5
 80037e2:	64e3      	str	r3, [r4, #76]	@ 0x4c
 80037e4:	68a3      	ldr	r3, [r4, #8]
 80037e6:	2b00      	cmp	r3, #0
 80037e8:	d13b      	bne.n	8003862 <dir_register+0xc6>
 80037ea:	e9d6 5403 	ldrd	r5, r4, [r6, #12]
 80037ee:	2240      	movs	r2, #64	@ 0x40
 80037f0:	2100      	movs	r1, #0
 80037f2:	4620      	mov	r0, r4
 80037f4:	2385      	movs	r3, #133	@ 0x85
 80037f6:	f7ff f822 	bl	800283e <mem_set>
 80037fa:	2201      	movs	r2, #1
 80037fc:	7023      	strb	r3, [r4, #0]
 80037fe:	23c0      	movs	r3, #192	@ 0xc0
 8003800:	f884 3020 	strb.w	r3, [r4, #32]
 8003804:	4610      	mov	r0, r2
 8003806:	2340      	movs	r3, #64	@ 0x40
 8003808:	27c1      	movs	r7, #193	@ 0xc1
 800380a:	468c      	mov	ip, r1
 800380c:	eb04 0e02 	add.w	lr, r4, r2
 8003810:	1c5e      	adds	r6, r3, #1
 8003812:	54e7      	strb	r7, [r4, r3]
 8003814:	f804 c006 	strb.w	ip, [r4, r6]
 8003818:	3302      	adds	r3, #2
 800381a:	b122      	cbz	r2, 8003826 <dir_register+0x8a>
 800381c:	f835 2011 	ldrh.w	r2, [r5, r1, lsl #1]
 8003820:	b10a      	cbz	r2, 8003826 <dir_register+0x8a>
 8003822:	3101      	adds	r1, #1
 8003824:	b2c9      	uxtb	r1, r1
 8003826:	0a16      	lsrs	r6, r2, #8
 8003828:	54e2      	strb	r2, [r4, r3]
 800382a:	f80e 6003 	strb.w	r6, [lr, r3]
 800382e:	3302      	adds	r3, #2
 8003830:	06de      	lsls	r6, r3, #27
 8003832:	d1f2      	bne.n	800381a <dir_register+0x7e>
 8003834:	f835 6011 	ldrh.w	r6, [r5, r1, lsl #1]
 8003838:	3001      	adds	r0, #1
 800383a:	b2c0      	uxtb	r0, r0
 800383c:	2e00      	cmp	r6, #0
 800383e:	d1e7      	bne.n	8003810 <dir_register+0x74>
 8003840:	7060      	strb	r0, [r4, #1]
 8003842:	f884 1023 	strb.w	r1, [r4, #35]	@ 0x23
 8003846:	4628      	mov	r0, r5
 8003848:	f7ff f946 	bl	8002ad8 <xname_sum>
 800384c:	f884 0024 	strb.w	r0, [r4, #36]	@ 0x24
 8003850:	0a00      	lsrs	r0, r0, #8
 8003852:	f884 0025 	strb.w	r0, [r4, #37]	@ 0x25
 8003856:	4648      	mov	r0, r9
 8003858:	b019      	add	sp, #100	@ 0x64
 800385a:	e8bd 8ff0 	ldmia.w	sp!, {r4, r5, r6, r7, r8, r9, sl, fp, pc}
 800385e:	3501      	adds	r5, #1
 8003860:	e7a8      	b.n	80037b4 <dir_register+0x18>
 8003862:	79e3      	ldrb	r3, [r4, #7]
 8003864:	075f      	lsls	r7, r3, #29
 8003866:	d5c0      	bpl.n	80037ea <dir_register+0x4e>
 8003868:	e9d4 3204 	ldrd	r3, r2, [r4, #16]
 800386c:	8970      	ldrh	r0, [r6, #10]
 800386e:	f44f 7100 	mov.w	r1, #512	@ 0x200
 8003872:	fbe0 3201 	umlal	r3, r2, r0, r1
 8003876:	e9c4 3204 	strd	r3, r2, [r4, #16]
 800387a:	4620      	mov	r0, r4
 800387c:	f7ff fb1f 	bl	8002ebe <fill_first_frag>
 8003880:	2800      	cmp	r0, #0
 8003882:	d133      	bne.n	80038ec <dir_register+0x150>
 8003884:	6b61      	ldr	r1, [r4, #52]	@ 0x34
 8003886:	f04f 32ff 	mov.w	r2, #4294967295
 800388a:	4620      	mov	r0, r4
 800388c:	f7ff faff 	bl	8002e8e <fill_last_frag>
 8003890:	bb60      	cbnz	r0, 80038ec <dir_register+0x150>
 8003892:	6823      	ldr	r3, [r4, #0]
 8003894:	9304      	str	r3, [sp, #16]
 8003896:	6a23      	ldr	r3, [r4, #32]
 8003898:	9306      	str	r3, [sp, #24]
 800389a:	6a63      	ldr	r3, [r4, #36]	@ 0x24
 800389c:	6aa1      	ldr	r1, [r4, #40]	@ 0x28
 800389e:	f88d 3017 	strb.w	r3, [sp, #23]
 80038a2:	a804      	add	r0, sp, #16
 80038a4:	f023 03ff 	bic.w	r3, r3, #255	@ 0xff
 80038a8:	e9cd 3908 	strd	r3, r9, [sp, #32]
 80038ac:	9117      	str	r1, [sp, #92]	@ 0x5c
 80038ae:	f7ff fa28 	bl	8002d02 <dir_sdi>
 80038b2:	b9d8      	cbnz	r0, 80038ec <dir_register+0x150>
 80038b4:	a804      	add	r0, sp, #16
 80038b6:	f7ff fd25 	bl	8003304 <load_xdir>
 80038ba:	b9b8      	cbnz	r0, 80038ec <dir_register+0x150>
 80038bc:	6930      	ldr	r0, [r6, #16]
 80038be:	e9d4 2304 	ldrd	r2, r3, [r4, #16]
 80038c2:	3038      	adds	r0, #56	@ 0x38
 80038c4:	f7fe ffac 	bl	8002820 <st_qword>
 80038c8:	6930      	ldr	r0, [r6, #16]
 80038ca:	e9d4 2304 	ldrd	r2, r3, [r4, #16]
 80038ce:	3028      	adds	r0, #40	@ 0x28
 80038d0:	f7fe ffa6 	bl	8002820 <st_qword>
 80038d4:	79e3      	ldrb	r3, [r4, #7]
 80038d6:	6932      	ldr	r2, [r6, #16]
 80038d8:	f043 0301 	orr.w	r3, r3, #1
 80038dc:	f882 3021 	strb.w	r3, [r2, #33]	@ 0x21
 80038e0:	a804      	add	r0, sp, #16
 80038e2:	f7ff fd9a 	bl	800341a <store_xdir>
 80038e6:	2800      	cmp	r0, #0
 80038e8:	f43f af7f 	beq.w	80037ea <dir_register+0x4e>
 80038ec:	4681      	mov	r9, r0
 80038ee:	e7b2      	b.n	8003856 <dir_register+0xba>
 80038f0:	f104 0740 	add.w	r7, r4, #64	@ 0x40
 80038f4:	220c      	movs	r2, #12
 80038f6:	4639      	mov	r1, r7
 80038f8:	a804      	add	r0, sp, #16
 80038fa:	f7ff f906 	bl	8002b0a <mem_cpy.part.0>
 80038fe:	f89d b01b 	ldrb.w	fp, [sp, #27]
 8003902:	f01b 0f01 	tst.w	fp, #1
 8003906:	f000 80d0 	beq.w	8003aaa <dir_register+0x30e>
 800390a:	2340      	movs	r3, #64	@ 0x40
 800390c:	f8df a1f8 	ldr.w	sl, [pc, #504]	@ 8003b08 <dir_register+0x36c>
 8003910:	f884 304b 	strb.w	r3, [r4, #75]	@ 0x4b
 8003914:	f04f 0801 	mov.w	r8, #1
 8003918:	220b      	movs	r2, #11
 800391a:	a904      	add	r1, sp, #16
 800391c:	4638      	mov	r0, r7
 800391e:	f8d6 900c 	ldr.w	r9, [r6, #12]
 8003922:	f7ff f8f2 	bl	8002b0a <mem_cpy.part.0>
 8003926:	f1b8 0f05 	cmp.w	r8, #5
 800392a:	d957      	bls.n	80039dc <dir_register+0x240>
 800392c:	f1a9 0102 	sub.w	r1, r9, #2
 8003930:	4643      	mov	r3, r8
 8003932:	f831 2f02 	ldrh.w	r2, [r1, #2]!
 8003936:	2a00      	cmp	r2, #0
 8003938:	d141      	bne.n	80039be <dir_register+0x222>
 800393a:	a804      	add	r0, sp, #16
 800393c:	2207      	movs	r2, #7
 800393e:	f003 0c0f 	and.w	ip, r3, #15
 8003942:	f10c 0130 	add.w	r1, ip, #48	@ 0x30
 8003946:	2939      	cmp	r1, #57	@ 0x39
 8003948:	bf88      	it	hi
 800394a:	f10c 0137 	addhi.w	r1, ip, #55	@ 0x37
 800394e:	2b0f      	cmp	r3, #15
 8003950:	f800 1d01 	strb.w	r1, [r0, #-1]!
 8003954:	f102 32ff 	add.w	r2, r2, #4294967295
 8003958:	ea4f 1113 	mov.w	r1, r3, lsr #4
 800395c:	d840      	bhi.n	80039e0 <dir_register+0x244>
 800395e:	f102 0360 	add.w	r3, r2, #96	@ 0x60
 8003962:	446b      	add	r3, sp
 8003964:	217e      	movs	r1, #126	@ 0x7e
 8003966:	f803 1c58 	strb.w	r1, [r3, #-88]
 800396a:	f104 013f 	add.w	r1, r4, #63	@ 0x3f
 800396e:	4608      	mov	r0, r1
 8003970:	2300      	movs	r3, #0
 8003972:	429a      	cmp	r2, r3
 8003974:	d006      	beq.n	8003984 <dir_register+0x1e8>
 8003976:	f810 cf01 	ldrb.w	ip, [r0, #1]!
 800397a:	f1bc 0f20 	cmp.w	ip, #32
 800397e:	f103 0e01 	add.w	lr, r3, #1
 8003982:	d12f      	bne.n	80039e4 <dir_register+0x248>
 8003984:	2a07      	cmp	r2, #7
 8003986:	bf9c      	itt	ls
 8003988:	f102 0060 	addls.w	r0, r2, #96	@ 0x60
 800398c:	4468      	addls	r0, sp
 800398e:	f103 0301 	add.w	r3, r3, #1
 8003992:	bf96      	itet	ls
 8003994:	f810 0c58 	ldrbls.w	r0, [r0, #-88]
 8003998:	2020      	movhi	r0, #32
 800399a:	3201      	addls	r2, #1
 800399c:	2b07      	cmp	r3, #7
 800399e:	54c8      	strb	r0, [r1, r3]
 80039a0:	d9f0      	bls.n	8003984 <dir_register+0x1e8>
 80039a2:	4620      	mov	r0, r4
 80039a4:	f7ff fe1c 	bl	80035e0 <dir_find>
 80039a8:	4681      	mov	r9, r0
 80039aa:	2800      	cmp	r0, #0
 80039ac:	d178      	bne.n	8003aa0 <dir_register+0x304>
 80039ae:	f108 0801 	add.w	r8, r8, #1
 80039b2:	f1b8 0f64 	cmp.w	r8, #100	@ 0x64
 80039b6:	d1af      	bne.n	8003918 <dir_register+0x17c>
 80039b8:	f04f 0907 	mov.w	r9, #7
 80039bc:	e74b      	b.n	8003856 <dir_register+0xba>
 80039be:	2010      	movs	r0, #16
 80039c0:	f002 0c01 	and.w	ip, r2, #1
 80039c4:	eb0c 0343 	add.w	r3, ip, r3, lsl #1
 80039c8:	f413 3f80 	tst.w	r3, #65536	@ 0x10000
 80039cc:	bf18      	it	ne
 80039ce:	ea83 030a 	eorne.w	r3, r3, sl
 80039d2:	3801      	subs	r0, #1
 80039d4:	ea4f 0252 	mov.w	r2, r2, lsr #1
 80039d8:	d1f2      	bne.n	80039c0 <dir_register+0x224>
 80039da:	e7aa      	b.n	8003932 <dir_register+0x196>
 80039dc:	4643      	mov	r3, r8
 80039de:	e7ac      	b.n	800393a <dir_register+0x19e>
 80039e0:	460b      	mov	r3, r1
 80039e2:	e7ac      	b.n	800393e <dir_register+0x1a2>
 80039e4:	4673      	mov	r3, lr
 80039e6:	e7c4      	b.n	8003972 <dir_register+0x1d6>
 80039e8:	6b21      	ldr	r1, [r4, #48]	@ 0x30
 80039ea:	4620      	mov	r0, r4
 80039ec:	eba1 1145 	sub.w	r1, r1, r5, lsl #5
 80039f0:	f7ff f987 	bl	8002d02 <dir_sdi>
 80039f4:	4681      	mov	r9, r0
 80039f6:	2800      	cmp	r0, #0
 80039f8:	f47f af2d 	bne.w	8003856 <dir_register+0xba>
 80039fc:	4638      	mov	r0, r7
 80039fe:	f7fe fff0 	bl	80029e2 <sum_sfn>
 8003a02:	f64f 78ff 	movw	r8, #65535	@ 0xffff
 8003a06:	9001      	str	r0, [sp, #4]
 8003a08:	6ba1      	ldr	r1, [r4, #56]	@ 0x38
 8003a0a:	4630      	mov	r0, r6
 8003a0c:	f7ff f892 	bl	8002b34 <move_window>
 8003a10:	4681      	mov	r9, r0
 8003a12:	2800      	cmp	r0, #0
 8003a14:	f47f af1f 	bne.w	8003856 <dir_register+0xba>
 8003a18:	6be3      	ldr	r3, [r4, #60]	@ 0x3c
 8003a1a:	9a01      	ldr	r2, [sp, #4]
 8003a1c:	f8d6 e00c 	ldr.w	lr, [r6, #12]
 8003a20:	735a      	strb	r2, [r3, #13]
 8003a22:	b2e9      	uxtb	r1, r5
 8003a24:	f04f 020f 	mov.w	r2, #15
 8003a28:	f04f 0c0d 	mov.w	ip, #13
 8003a2c:	72da      	strb	r2, [r3, #11]
 8003a2e:	f8df a0dc 	ldr.w	sl, [pc, #220]	@ 8003b0c <dir_register+0x370>
 8003a32:	7318      	strb	r0, [r3, #12]
 8003a34:	1e4a      	subs	r2, r1, #1
 8003a36:	fb0c f202 	mul.w	r2, ip, r2
 8003a3a:	7698      	strb	r0, [r3, #26]
 8003a3c:	76d8      	strb	r0, [r3, #27]
 8003a3e:	4684      	mov	ip, r0
 8003a40:	f81a 9b01 	ldrb.w	r9, [sl], #1
 8003a44:	4540      	cmp	r0, r8
 8003a46:	bf18      	it	ne
 8003a48:	f83e 0012 	ldrhne.w	r0, [lr, r2, lsl #1]
 8003a4c:	f803 0009 	strb.w	r0, [r3, r9]
 8003a50:	eb03 0b09 	add.w	fp, r3, r9
 8003a54:	f10c 0c01 	add.w	ip, ip, #1
 8003a58:	bf18      	it	ne
 8003a5a:	3201      	addne	r2, #1
 8003a5c:	ea4f 2910 	mov.w	r9, r0, lsr #8
 8003a60:	2800      	cmp	r0, #0
 8003a62:	bf08      	it	eq
 8003a64:	4640      	moveq	r0, r8
 8003a66:	f1bc 0f0d 	cmp.w	ip, #13
 8003a6a:	f88b 9001 	strb.w	r9, [fp, #1]
 8003a6e:	d1e7      	bne.n	8003a40 <dir_register+0x2a4>
 8003a70:	4540      	cmp	r0, r8
 8003a72:	d002      	beq.n	8003a7a <dir_register+0x2de>
 8003a74:	f83e 2012 	ldrh.w	r2, [lr, r2, lsl #1]
 8003a78:	b90a      	cbnz	r2, 8003a7e <dir_register+0x2e2>
 8003a7a:	f041 0140 	orr.w	r1, r1, #64	@ 0x40
 8003a7e:	7019      	strb	r1, [r3, #0]
 8003a80:	2301      	movs	r3, #1
 8003a82:	70f3      	strb	r3, [r6, #3]
 8003a84:	2100      	movs	r1, #0
 8003a86:	4620      	mov	r0, r4
 8003a88:	f7ff fbbd 	bl	8003206 <dir_next>
 8003a8c:	4681      	mov	r9, r0
 8003a8e:	2800      	cmp	r0, #0
 8003a90:	f47f aee1 	bne.w	8003856 <dir_register+0xba>
 8003a94:	3d01      	subs	r5, #1
 8003a96:	d1b7      	bne.n	8003a08 <dir_register+0x26c>
 8003a98:	e01b      	b.n	8003ad2 <dir_register+0x336>
 8003a9a:	f04f 0906 	mov.w	r9, #6
 8003a9e:	e6da      	b.n	8003856 <dir_register+0xba>
 8003aa0:	2804      	cmp	r0, #4
 8003aa2:	f47f aed8 	bne.w	8003856 <dir_register+0xba>
 8003aa6:	f884 b04b 	strb.w	fp, [r4, #75]	@ 0x4b
 8003aaa:	f01b 0f02 	tst.w	fp, #2
 8003aae:	bf1b      	ittet	ne
 8003ab0:	350c      	addne	r5, #12
 8003ab2:	230d      	movne	r3, #13
 8003ab4:	2501      	moveq	r5, #1
 8003ab6:	fbb5 f5f3 	udivne	r5, r5, r3
 8003aba:	bf18      	it	ne
 8003abc:	3501      	addne	r5, #1
 8003abe:	4629      	mov	r1, r5
 8003ac0:	4620      	mov	r0, r4
 8003ac2:	f7ff fc82 	bl	80033ca <dir_alloc>
 8003ac6:	4681      	mov	r9, r0
 8003ac8:	2800      	cmp	r0, #0
 8003aca:	f47f aec4 	bne.w	8003856 <dir_register+0xba>
 8003ace:	3d01      	subs	r5, #1
 8003ad0:	d18a      	bne.n	80039e8 <dir_register+0x24c>
 8003ad2:	6ba1      	ldr	r1, [r4, #56]	@ 0x38
 8003ad4:	4630      	mov	r0, r6
 8003ad6:	f7ff f82d 	bl	8002b34 <move_window>
 8003ada:	4681      	mov	r9, r0
 8003adc:	2800      	cmp	r0, #0
 8003ade:	f47f aeba 	bne.w	8003856 <dir_register+0xba>
 8003ae2:	4601      	mov	r1, r0
 8003ae4:	2220      	movs	r2, #32
 8003ae6:	6be0      	ldr	r0, [r4, #60]	@ 0x3c
 8003ae8:	f7fe fea9 	bl	800283e <mem_set>
 8003aec:	220b      	movs	r2, #11
 8003aee:	6be0      	ldr	r0, [r4, #60]	@ 0x3c
 8003af0:	4639      	mov	r1, r7
 8003af2:	f7ff f80a 	bl	8002b0a <mem_cpy.part.0>
 8003af6:	f894 304b 	ldrb.w	r3, [r4, #75]	@ 0x4b
 8003afa:	6be2      	ldr	r2, [r4, #60]	@ 0x3c
 8003afc:	f003 0318 	and.w	r3, r3, #24
 8003b00:	7313      	strb	r3, [r2, #12]
 8003b02:	2301      	movs	r3, #1
 8003b04:	70f3      	strb	r3, [r6, #3]
 8003b06:	e6a6      	b.n	8003856 <dir_register+0xba>
 8003b08:	00011021 	.word	0x00011021
 8003b0c:	080052fb 	.word	0x080052fb

08003b10 <ld_clust.isra.0>:
 8003b10:	2803      	cmp	r0, #3
 8003b12:	8b4b      	ldrh	r3, [r1, #26]
 8003b14:	bf04      	itt	eq
 8003b16:	8a8a      	ldrheq	r2, [r1, #20]
 8003b18:	ea43 4302 	orreq.w	r3, r3, r2, lsl #16
 8003b1c:	4618      	mov	r0, r3
 8003b1e:	4770      	bx	lr

08003b20 <follow_path>:
 8003b20:	e92d 4ff7 	stmdb	sp!, {r0, r1, r2, r4, r5, r6, r7, r8, r9, sl, fp, lr}
 8003b24:	6803      	ldr	r3, [r0, #0]
 8003b26:	9300      	str	r3, [sp, #0]
 8003b28:	4605      	mov	r5, r0
 8003b2a:	468a      	mov	sl, r1
 8003b2c:	f811 3b01 	ldrb.w	r3, [r1], #1
 8003b30:	2b2f      	cmp	r3, #47	@ 0x2f
 8003b32:	d0fa      	beq.n	8003b2a <follow_path+0xa>
 8003b34:	2b5c      	cmp	r3, #92	@ 0x5c
 8003b36:	d0f8      	beq.n	8003b2a <follow_path+0xa>
 8003b38:	2300      	movs	r3, #0
 8003b3a:	60ab      	str	r3, [r5, #8]
 8003b3c:	61eb      	str	r3, [r5, #28]
 8003b3e:	f89a 3000 	ldrb.w	r3, [sl]
 8003b42:	2b1f      	cmp	r3, #31
 8003b44:	f200 809a 	bhi.w	8003c7c <follow_path+0x15c>
 8003b48:	2380      	movs	r3, #128	@ 0x80
 8003b4a:	2100      	movs	r1, #0
 8003b4c:	4628      	mov	r0, r5
 8003b4e:	f885 304b 	strb.w	r3, [r5, #75]	@ 0x4b
 8003b52:	b003      	add	sp, #12
 8003b54:	e8bd 4ff0 	ldmia.w	sp!, {r4, r5, r6, r7, r8, r9, sl, fp, lr}
 8003b58:	f7ff b8d3 	b.w	8002d02 <dir_sdi>
 8003b5c:	3601      	adds	r6, #1
 8003b5e:	e0a0      	b.n	8003ca2 <follow_path+0x182>
 8003b60:	f5b6 7f80 	cmp.w	r6, #256	@ 0x100
 8003b64:	d00c      	beq.n	8003b80 <follow_path+0x60>
 8003b66:	2101      	movs	r1, #1
 8003b68:	4620      	mov	r0, r4
 8003b6a:	f001 f955 	bl	8004e18 <ff_convert>
 8003b6e:	b138      	cbz	r0, 8003b80 <follow_path+0x60>
 8003b70:	287f      	cmp	r0, #127	@ 0x7f
 8003b72:	d807      	bhi.n	8003b84 <follow_path+0x64>
 8003b74:	4995      	ldr	r1, [pc, #596]	@ (8003dcc <follow_path+0x2ac>)
 8003b76:	f811 2b01 	ldrb.w	r2, [r1], #1
 8003b7a:	b11a      	cbz	r2, 8003b84 <follow_path+0x64>
 8003b7c:	4290      	cmp	r0, r2
 8003b7e:	d1fa      	bne.n	8003b76 <follow_path+0x56>
 8003b80:	2006      	movs	r0, #6
 8003b82:	e120      	b.n	8003dc6 <follow_path+0x2a6>
 8003b84:	f828 0f02 	strh.w	r0, [r8, #2]!
 8003b88:	4637      	mov	r7, r6
 8003b8a:	e07f      	b.n	8003c8c <follow_path+0x16c>
 8003b8c:	f832 1d02 	ldrh.w	r1, [r2, #-2]!
 8003b90:	2920      	cmp	r1, #32
 8003b92:	d002      	beq.n	8003b9a <follow_path+0x7a>
 8003b94:	292e      	cmp	r1, #46	@ 0x2e
 8003b96:	f040 8092 	bne.w	8003cbe <follow_path+0x19e>
 8003b9a:	3f01      	subs	r7, #1
 8003b9c:	e08c      	b.n	8003cb8 <follow_path+0x198>
 8003b9e:	3101      	adds	r1, #1
 8003ba0:	e09d      	b.n	8003cde <follow_path+0x1be>
 8003ba2:	45c1      	cmp	r9, r8
 8003ba4:	f080 80d5 	bcs.w	8003d52 <follow_path+0x232>
 8003ba8:	42ba      	cmp	r2, r7
 8003baa:	d111      	bne.n	8003bd0 <follow_path+0xb0>
 8003bac:	f1b8 0f0b 	cmp.w	r8, #11
 8003bb0:	d106      	bne.n	8003bc0 <follow_path+0xa0>
 8003bb2:	e0d2      	b.n	8003d5a <follow_path+0x23a>
 8003bb4:	42ba      	cmp	r2, r7
 8003bb6:	d003      	beq.n	8003bc0 <follow_path+0xa0>
 8003bb8:	f044 0403 	orr.w	r4, r4, #3
 8003bbc:	f200 80d1 	bhi.w	8003d62 <follow_path+0x242>
 8003bc0:	00b6      	lsls	r6, r6, #2
 8003bc2:	b2f6      	uxtb	r6, r6
 8003bc4:	463a      	mov	r2, r7
 8003bc6:	f04f 080b 	mov.w	r8, #11
 8003bca:	f04f 0908 	mov.w	r9, #8
 8003bce:	e0ae      	b.n	8003d2e <follow_path+0x20e>
 8003bd0:	287f      	cmp	r0, #127	@ 0x7f
 8003bd2:	d90c      	bls.n	8003bee <follow_path+0xce>
 8003bd4:	2100      	movs	r1, #0
 8003bd6:	9201      	str	r2, [sp, #4]
 8003bd8:	f001 f91e 	bl	8004e18 <ff_convert>
 8003bdc:	f044 0402 	orr.w	r4, r4, #2
 8003be0:	9a01      	ldr	r2, [sp, #4]
 8003be2:	b150      	cbz	r0, 8003bfa <follow_path+0xda>
 8003be4:	497a      	ldr	r1, [pc, #488]	@ (8003dd0 <follow_path+0x2b0>)
 8003be6:	4401      	add	r1, r0
 8003be8:	f811 0c80 	ldrb.w	r0, [r1, #-128]
 8003bec:	b128      	cbz	r0, 8003bfa <follow_path+0xda>
 8003bee:	4b79      	ldr	r3, [pc, #484]	@ (8003dd4 <follow_path+0x2b4>)
 8003bf0:	f813 1b01 	ldrb.w	r1, [r3], #1
 8003bf4:	b159      	cbz	r1, 8003c0e <follow_path+0xee>
 8003bf6:	4288      	cmp	r0, r1
 8003bf8:	d1fa      	bne.n	8003bf0 <follow_path+0xd0>
 8003bfa:	f044 0403 	orr.w	r4, r4, #3
 8003bfe:	205f      	movs	r0, #95	@ 0x5f
 8003c00:	eb05 0109 	add.w	r1, r5, r9
 8003c04:	f109 0901 	add.w	r9, r9, #1
 8003c08:	f881 0040 	strb.w	r0, [r1, #64]	@ 0x40
 8003c0c:	e08f      	b.n	8003d2e <follow_path+0x20e>
 8003c0e:	f1a0 0141 	sub.w	r1, r0, #65	@ 0x41
 8003c12:	2919      	cmp	r1, #25
 8003c14:	d802      	bhi.n	8003c1c <follow_path+0xfc>
 8003c16:	f046 0602 	orr.w	r6, r6, #2
 8003c1a:	e7f1      	b.n	8003c00 <follow_path+0xe0>
 8003c1c:	f1a0 0161 	sub.w	r1, r0, #97	@ 0x61
 8003c20:	2919      	cmp	r1, #25
 8003c22:	bf9e      	ittt	ls
 8003c24:	3820      	subls	r0, #32
 8003c26:	f046 0601 	orrls.w	r6, r6, #1
 8003c2a:	b280      	uxthls	r0, r0
 8003c2c:	e7e8      	b.n	8003c00 <follow_path+0xe0>
 8003c2e:	075a      	lsls	r2, r3, #29
 8003c30:	f100 80c9 	bmi.w	8003dc6 <follow_path+0x2a6>
 8003c34:	79ab      	ldrb	r3, [r5, #6]
 8003c36:	06db      	lsls	r3, r3, #27
 8003c38:	f140 8086 	bpl.w	8003d48 <follow_path+0x228>
 8003c3c:	9b00      	ldr	r3, [sp, #0]
 8003c3e:	7818      	ldrb	r0, [r3, #0]
 8003c40:	2804      	cmp	r0, #4
 8003c42:	d176      	bne.n	8003d32 <follow_path+0x212>
 8003c44:	68ab      	ldr	r3, [r5, #8]
 8003c46:	622b      	str	r3, [r5, #32]
 8003c48:	692b      	ldr	r3, [r5, #16]
 8003c4a:	79ea      	ldrb	r2, [r5, #7]
 8003c4c:	f023 03ff 	bic.w	r3, r3, #255	@ 0xff
 8003c50:	4313      	orrs	r3, r2
 8003c52:	626b      	str	r3, [r5, #36]	@ 0x24
 8003c54:	6ceb      	ldr	r3, [r5, #76]	@ 0x4c
 8003c56:	62ab      	str	r3, [r5, #40]	@ 0x28
 8003c58:	9b00      	ldr	r3, [sp, #0]
 8003c5a:	691b      	ldr	r3, [r3, #16]
 8003c5c:	f103 0034 	add.w	r0, r3, #52	@ 0x34
 8003c60:	f7fe fdd0 	bl	8002804 <ld_dword>
 8003c64:	60a8      	str	r0, [r5, #8]
 8003c66:	f893 2021 	ldrb.w	r2, [r3, #33]	@ 0x21
 8003c6a:	f002 0202 	and.w	r2, r2, #2
 8003c6e:	71ea      	strb	r2, [r5, #7]
 8003c70:	f103 0038 	add.w	r0, r3, #56	@ 0x38
 8003c74:	f7fe fdc8 	bl	8002808 <ld_qword>
 8003c78:	e9c5 0104 	strd	r0, r1, [r5, #16]
 8003c7c:	682b      	ldr	r3, [r5, #0]
 8003c7e:	f8d3 b00c 	ldr.w	fp, [r3, #12]
 8003c82:	f10a 39ff 	add.w	r9, sl, #4294967295
 8003c86:	f1ab 0802 	sub.w	r8, fp, #2
 8003c8a:	2700      	movs	r7, #0
 8003c8c:	f819 4f01 	ldrb.w	r4, [r9, #1]!
 8003c90:	2c1f      	cmp	r4, #31
 8003c92:	f107 0601 	add.w	r6, r7, #1
 8003c96:	d90c      	bls.n	8003cb2 <follow_path+0x192>
 8003c98:	2c2f      	cmp	r4, #47	@ 0x2f
 8003c9a:	d002      	beq.n	8003ca2 <follow_path+0x182>
 8003c9c:	2c5c      	cmp	r4, #92	@ 0x5c
 8003c9e:	f47f af5f 	bne.w	8003b60 <follow_path+0x40>
 8003ca2:	f81a 2006 	ldrb.w	r2, [sl, r6]
 8003ca6:	2a2f      	cmp	r2, #47	@ 0x2f
 8003ca8:	f43f af58 	beq.w	8003b5c <follow_path+0x3c>
 8003cac:	2a5c      	cmp	r2, #92	@ 0x5c
 8003cae:	f43f af55 	beq.w	8003b5c <follow_path+0x3c>
 8003cb2:	44b2      	add	sl, r6
 8003cb4:	eb0b 0247 	add.w	r2, fp, r7, lsl #1
 8003cb8:	2f00      	cmp	r7, #0
 8003cba:	f47f af67 	bne.w	8003b8c <follow_path+0x6c>
 8003cbe:	f04f 0300 	mov.w	r3, #0
 8003cc2:	f82b 3017 	strh.w	r3, [fp, r7, lsl #1]
 8003cc6:	eb0b 0647 	add.w	r6, fp, r7, lsl #1
 8003cca:	2f00      	cmp	r7, #0
 8003ccc:	f43f af58 	beq.w	8003b80 <follow_path+0x60>
 8003cd0:	2120      	movs	r1, #32
 8003cd2:	220b      	movs	r2, #11
 8003cd4:	f105 0040 	add.w	r0, r5, #64	@ 0x40
 8003cd8:	f7fe fdb1 	bl	800283e <mem_set>
 8003cdc:	2100      	movs	r1, #0
 8003cde:	f83b 2011 	ldrh.w	r2, [fp, r1, lsl #1]
 8003ce2:	2a20      	cmp	r2, #32
 8003ce4:	f43f af5b 	beq.w	8003b9e <follow_path+0x7e>
 8003ce8:	2a2e      	cmp	r2, #46	@ 0x2e
 8003cea:	f43f af58 	beq.w	8003b9e <follow_path+0x7e>
 8003cee:	2c1f      	cmp	r4, #31
 8003cf0:	bf8c      	ite	hi
 8003cf2:	2400      	movhi	r4, #0
 8003cf4:	2401      	movls	r4, #1
 8003cf6:	00a4      	lsls	r4, r4, #2
 8003cf8:	b109      	cbz	r1, 8003cfe <follow_path+0x1de>
 8003cfa:	f044 0403 	orr.w	r4, r4, #3
 8003cfe:	f836 2d02 	ldrh.w	r2, [r6, #-2]!
 8003d02:	2a2e      	cmp	r2, #46	@ 0x2e
 8003d04:	d001      	beq.n	8003d0a <follow_path+0x1ea>
 8003d06:	3f01      	subs	r7, #1
 8003d08:	d1f9      	bne.n	8003cfe <follow_path+0x1de>
 8003d0a:	f04f 0900 	mov.w	r9, #0
 8003d0e:	f04f 0808 	mov.w	r8, #8
 8003d12:	464e      	mov	r6, r9
 8003d14:	f83b 0011 	ldrh.w	r0, [fp, r1, lsl #1]
 8003d18:	1c4a      	adds	r2, r1, #1
 8003d1a:	b310      	cbz	r0, 8003d62 <follow_path+0x242>
 8003d1c:	2820      	cmp	r0, #32
 8003d1e:	d004      	beq.n	8003d2a <follow_path+0x20a>
 8003d20:	282e      	cmp	r0, #46	@ 0x2e
 8003d22:	f47f af3e 	bne.w	8003ba2 <follow_path+0x82>
 8003d26:	42ba      	cmp	r2, r7
 8003d28:	d010      	beq.n	8003d4c <follow_path+0x22c>
 8003d2a:	f044 0403 	orr.w	r4, r4, #3
 8003d2e:	4611      	mov	r1, r2
 8003d30:	e7f0      	b.n	8003d14 <follow_path+0x1f4>
 8003d32:	9b00      	ldr	r3, [sp, #0]
 8003d34:	f103 0138 	add.w	r1, r3, #56	@ 0x38
 8003d38:	6b2b      	ldr	r3, [r5, #48]	@ 0x30
 8003d3a:	f3c3 0308 	ubfx	r3, r3, #0, #9
 8003d3e:	4419      	add	r1, r3
 8003d40:	f7ff fee6 	bl	8003b10 <ld_clust.isra.0>
 8003d44:	60a8      	str	r0, [r5, #8]
 8003d46:	e799      	b.n	8003c7c <follow_path+0x15c>
 8003d48:	2005      	movs	r0, #5
 8003d4a:	e03c      	b.n	8003dc6 <follow_path+0x2a6>
 8003d4c:	45c1      	cmp	r9, r8
 8003d4e:	f4ff af2d 	bcc.w	8003bac <follow_path+0x8c>
 8003d52:	f1b8 0f0b 	cmp.w	r8, #11
 8003d56:	f47f af2d 	bne.w	8003bb4 <follow_path+0x94>
 8003d5a:	f044 0403 	orr.w	r4, r4, #3
 8003d5e:	f04f 080b 	mov.w	r8, #11
 8003d62:	f895 3040 	ldrb.w	r3, [r5, #64]	@ 0x40
 8003d66:	2be5      	cmp	r3, #229	@ 0xe5
 8003d68:	bf04      	itt	eq
 8003d6a:	2305      	moveq	r3, #5
 8003d6c:	f885 3040 	strbeq.w	r3, [r5, #64]	@ 0x40
 8003d70:	f1b8 0f08 	cmp.w	r8, #8
 8003d74:	bf04      	itt	eq
 8003d76:	00b6      	lsleq	r6, r6, #2
 8003d78:	b2f6      	uxtbeq	r6, r6
 8003d7a:	f006 030c 	and.w	r3, r6, #12
 8003d7e:	2b0c      	cmp	r3, #12
 8003d80:	d003      	beq.n	8003d8a <follow_path+0x26a>
 8003d82:	f006 0203 	and.w	r2, r6, #3
 8003d86:	2a03      	cmp	r2, #3
 8003d88:	d101      	bne.n	8003d8e <follow_path+0x26e>
 8003d8a:	f044 0402 	orr.w	r4, r4, #2
 8003d8e:	07a1      	lsls	r1, r4, #30
 8003d90:	d409      	bmi.n	8003da6 <follow_path+0x286>
 8003d92:	f006 0603 	and.w	r6, r6, #3
 8003d96:	2e01      	cmp	r6, #1
 8003d98:	bf08      	it	eq
 8003d9a:	f044 0410 	orreq.w	r4, r4, #16
 8003d9e:	2b04      	cmp	r3, #4
 8003da0:	bf08      	it	eq
 8003da2:	f044 0408 	orreq.w	r4, r4, #8
 8003da6:	f885 404b 	strb.w	r4, [r5, #75]	@ 0x4b
 8003daa:	4628      	mov	r0, r5
 8003dac:	f7ff fc18 	bl	80035e0 <dir_find>
 8003db0:	f895 304b 	ldrb.w	r3, [r5, #75]	@ 0x4b
 8003db4:	2800      	cmp	r0, #0
 8003db6:	f43f af3a 	beq.w	8003c2e <follow_path+0x10e>
 8003dba:	2804      	cmp	r0, #4
 8003dbc:	d103      	bne.n	8003dc6 <follow_path+0x2a6>
 8003dbe:	f013 0f04 	tst.w	r3, #4
 8003dc2:	bf08      	it	eq
 8003dc4:	2005      	moveq	r0, #5
 8003dc6:	b003      	add	sp, #12
 8003dc8:	e8bd 8ff0 	ldmia.w	sp!, {r4, r5, r6, r7, r8, r9, sl, fp, pc}
 8003dcc:	080052c7 	.word	0x080052c7
 8003dd0:	08005308 	.word	0x08005308
 8003dd4:	080052d0 	.word	0x080052d0

08003dd8 <check_fs>:
 8003dd8:	2300      	movs	r3, #0
 8003dda:	b510      	push	{r4, lr}
 8003ddc:	70c3      	strb	r3, [r0, #3]
 8003dde:	f04f 33ff 	mov.w	r3, #4294967295
 8003de2:	6343      	str	r3, [r0, #52]	@ 0x34
 8003de4:	4604      	mov	r4, r0
 8003de6:	f7fe fea5 	bl	8002b34 <move_window>
 8003dea:	4603      	mov	r3, r0
 8003dec:	bbb0      	cbnz	r0, 8003e5c <check_fs+0x84>
 8003dee:	f8b4 1236 	ldrh.w	r1, [r4, #566]	@ 0x236
 8003df2:	f64a 2255 	movw	r2, #43605	@ 0xaa55
 8003df6:	4291      	cmp	r1, r2
 8003df8:	d132      	bne.n	8003e60 <check_fs+0x88>
 8003dfa:	f894 2038 	ldrb.w	r2, [r4, #56]	@ 0x38
 8003dfe:	2ae9      	cmp	r2, #233	@ 0xe9
 8003e00:	d005      	beq.n	8003e0e <check_fs+0x36>
 8003e02:	6ba2      	ldr	r2, [r4, #56]	@ 0x38
 8003e04:	4917      	ldr	r1, [pc, #92]	@ (8003e64 <check_fs+0x8c>)
 8003e06:	f002 12ff 	and.w	r2, r2, #16711935	@ 0xff00ff
 8003e0a:	428a      	cmp	r2, r1
 8003e0c:	d110      	bne.n	8003e30 <check_fs+0x58>
 8003e0e:	f104 006e 	add.w	r0, r4, #110	@ 0x6e
 8003e12:	f7fe fcf7 	bl	8002804 <ld_dword>
 8003e16:	4a14      	ldr	r2, [pc, #80]	@ (8003e68 <check_fs+0x90>)
 8003e18:	f020 407f 	bic.w	r0, r0, #4278190080	@ 0xff000000
 8003e1c:	4290      	cmp	r0, r2
 8003e1e:	d016      	beq.n	8003e4e <check_fs+0x76>
 8003e20:	f104 008a 	add.w	r0, r4, #138	@ 0x8a
 8003e24:	f7fe fcee 	bl	8002804 <ld_dword>
 8003e28:	f102 524c 	add.w	r2, r2, #855638016	@ 0x33000000
 8003e2c:	4290      	cmp	r0, r2
 8003e2e:	d00e      	beq.n	8003e4e <check_fs+0x76>
 8003e30:	490e      	ldr	r1, [pc, #56]	@ (8003e6c <check_fs+0x94>)
 8003e32:	f104 0238 	add.w	r2, r4, #56	@ 0x38
 8003e36:	3443      	adds	r4, #67	@ 0x43
 8003e38:	f812 3b01 	ldrb.w	r3, [r2], #1
 8003e3c:	f811 0b01 	ldrb.w	r0, [r1], #1
 8003e40:	42a2      	cmp	r2, r4
 8003e42:	eba3 0300 	sub.w	r3, r3, r0
 8003e46:	d004      	beq.n	8003e52 <check_fs+0x7a>
 8003e48:	2b00      	cmp	r3, #0
 8003e4a:	d0f5      	beq.n	8003e38 <check_fs+0x60>
 8003e4c:	2302      	movs	r3, #2
 8003e4e:	4618      	mov	r0, r3
 8003e50:	bd10      	pop	{r4, pc}
 8003e52:	2b00      	cmp	r3, #0
 8003e54:	bf0c      	ite	eq
 8003e56:	2301      	moveq	r3, #1
 8003e58:	2302      	movne	r3, #2
 8003e5a:	e7f8      	b.n	8003e4e <check_fs+0x76>
 8003e5c:	2304      	movs	r3, #4
 8003e5e:	e7f6      	b.n	8003e4e <check_fs+0x76>
 8003e60:	2303      	movs	r3, #3
 8003e62:	e7f4      	b.n	8003e4e <check_fs+0x76>
 8003e64:	009000eb 	.word	0x009000eb
 8003e68:	00544146 	.word	0x00544146
 8003e6c:	080052d7 	.word	0x080052d7

08003e70 <find_volume>:
 8003e70:	e92d 43f0 	stmdb	sp!, {r4, r5, r6, r7, r8, r9, lr}
 8003e74:	2300      	movs	r3, #0
 8003e76:	b085      	sub	sp, #20
 8003e78:	600b      	str	r3, [r1, #0]
 8003e7a:	460f      	mov	r7, r1
 8003e7c:	4616      	mov	r6, r2
 8003e7e:	f7fe fdd4 	bl	8002a2a <get_ldnumber>
 8003e82:	1e05      	subs	r5, r0, #0
 8003e84:	f2c0 818e 	blt.w	80041a4 <find_volume+0x334>
 8003e88:	4b69      	ldr	r3, [pc, #420]	@ (8004030 <find_volume+0x1c0>)
 8003e8a:	f853 4025 	ldr.w	r4, [r3, r5, lsl #2]
 8003e8e:	2c00      	cmp	r4, #0
 8003e90:	f000 818a 	beq.w	80041a8 <find_volume+0x338>
 8003e94:	603c      	str	r4, [r7, #0]
 8003e96:	7823      	ldrb	r3, [r4, #0]
 8003e98:	f006 06fe 	and.w	r6, r6, #254	@ 0xfe
 8003e9c:	b173      	cbz	r3, 8003ebc <find_volume+0x4c>
 8003e9e:	7860      	ldrb	r0, [r4, #1]
 8003ea0:	f7fe fc68 	bl	8002774 <disk_status>
 8003ea4:	07c7      	lsls	r7, r0, #31
 8003ea6:	d409      	bmi.n	8003ebc <find_volume+0x4c>
 8003ea8:	2e00      	cmp	r6, #0
 8003eaa:	f000 8168 	beq.w	800417e <find_volume+0x30e>
 8003eae:	0740      	lsls	r0, r0, #29
 8003eb0:	f140 8165 	bpl.w	800417e <find_volume+0x30e>
 8003eb4:	200a      	movs	r0, #10
 8003eb6:	b005      	add	sp, #20
 8003eb8:	e8bd 83f0 	ldmia.w	sp!, {r4, r5, r6, r7, r8, r9, pc}
 8003ebc:	2300      	movs	r3, #0
 8003ebe:	b2e8      	uxtb	r0, r5
 8003ec0:	7023      	strb	r3, [r4, #0]
 8003ec2:	7060      	strb	r0, [r4, #1]
 8003ec4:	f7fe fc60 	bl	8002788 <disk_initialize>
 8003ec8:	07c1      	lsls	r1, r0, #31
 8003eca:	f100 816f 	bmi.w	80041ac <find_volume+0x33c>
 8003ece:	b10e      	cbz	r6, 8003ed4 <find_volume+0x64>
 8003ed0:	0742      	lsls	r2, r0, #29
 8003ed2:	d4ef      	bmi.n	8003eb4 <find_volume+0x44>
 8003ed4:	2100      	movs	r1, #0
 8003ed6:	4620      	mov	r0, r4
 8003ed8:	f7ff ff7e 	bl	8003dd8 <check_fs>
 8003edc:	2802      	cmp	r0, #2
 8003ede:	f040 809d 	bne.w	800401c <find_volume+0x1ac>
 8003ee2:	466f      	mov	r7, sp
 8003ee4:	f504 73ff 	add.w	r3, r4, #510	@ 0x1fe
 8003ee8:	f204 213e 	addw	r1, r4, #574	@ 0x23e
 8003eec:	463a      	mov	r2, r7
 8003eee:	f813 0c04 	ldrb.w	r0, [r3, #-4]
 8003ef2:	b110      	cbz	r0, 8003efa <find_volume+0x8a>
 8003ef4:	4618      	mov	r0, r3
 8003ef6:	f7fe fc85 	bl	8002804 <ld_dword>
 8003efa:	3310      	adds	r3, #16
 8003efc:	428b      	cmp	r3, r1
 8003efe:	f842 0b04 	str.w	r0, [r2], #4
 8003f02:	d1f4      	bne.n	8003eee <find_volume+0x7e>
 8003f04:	2600      	movs	r6, #0
 8003f06:	f857 5b04 	ldr.w	r5, [r7], #4
 8003f0a:	2d00      	cmp	r5, #0
 8003f0c:	d07e      	beq.n	800400c <find_volume+0x19c>
 8003f0e:	4629      	mov	r1, r5
 8003f10:	4620      	mov	r0, r4
 8003f12:	f7ff ff61 	bl	8003dd8 <check_fs>
 8003f16:	2801      	cmp	r0, #1
 8003f18:	d879      	bhi.n	800400e <find_volume+0x19e>
 8003f1a:	2801      	cmp	r0, #1
 8003f1c:	f040 808c 	bne.w	8004038 <find_volume+0x1c8>
 8003f20:	f104 0242 	add.w	r2, r4, #66	@ 0x42
 8003f24:	230b      	movs	r3, #11
 8003f26:	f812 6f01 	ldrb.w	r6, [r2, #1]!
 8003f2a:	2e00      	cmp	r6, #0
 8003f2c:	d17c      	bne.n	8004028 <find_volume+0x1b8>
 8003f2e:	3301      	adds	r3, #1
 8003f30:	2b40      	cmp	r3, #64	@ 0x40
 8003f32:	d1f8      	bne.n	8003f26 <find_volume+0xb6>
 8003f34:	f8b4 30a0 	ldrh.w	r3, [r4, #160]	@ 0xa0
 8003f38:	f5b3 7f80 	cmp.w	r3, #256	@ 0x100
 8003f3c:	d174      	bne.n	8004028 <find_volume+0x1b8>
 8003f3e:	f894 30a4 	ldrb.w	r3, [r4, #164]	@ 0xa4
 8003f42:	2b09      	cmp	r3, #9
 8003f44:	d170      	bne.n	8004028 <find_volume+0x1b8>
 8003f46:	f104 0080 	add.w	r0, r4, #128	@ 0x80
 8003f4a:	f7fe fc5d 	bl	8002808 <ld_qword>
 8003f4e:	f04f 33ff 	mov.w	r3, #4294967295
 8003f52:	182f      	adds	r7, r5, r0
 8003f54:	f141 0100 	adc.w	r1, r1, #0
 8003f58:	42bb      	cmp	r3, r7
 8003f5a:	eb76 0301 	sbcs.w	r3, r6, r1
 8003f5e:	d363      	bcc.n	8004028 <find_volume+0x1b8>
 8003f60:	f104 008c 	add.w	r0, r4, #140	@ 0x8c
 8003f64:	f7fe fc4e 	bl	8002804 <ld_dword>
 8003f68:	f894 30a6 	ldrb.w	r3, [r4, #166]	@ 0xa6
 8003f6c:	6220      	str	r0, [r4, #32]
 8003f6e:	2b01      	cmp	r3, #1
 8003f70:	70a3      	strb	r3, [r4, #2]
 8003f72:	d159      	bne.n	8004028 <find_volume+0x1b8>
 8003f74:	f894 20a5 	ldrb.w	r2, [r4, #165]	@ 0xa5
 8003f78:	4093      	lsls	r3, r2
 8003f7a:	b29a      	uxth	r2, r3
 8003f7c:	8162      	strh	r2, [r4, #10]
 8003f7e:	2a00      	cmp	r2, #0
 8003f80:	d052      	beq.n	8004028 <find_volume+0x1b8>
 8003f82:	f104 0094 	add.w	r0, r4, #148	@ 0x94
 8003f86:	f7fe fc3d 	bl	8002804 <ld_dword>
 8003f8a:	4a2a      	ldr	r2, [pc, #168]	@ (8004034 <find_volume+0x1c4>)
 8003f8c:	4290      	cmp	r0, r2
 8003f8e:	4681      	mov	r9, r0
 8003f90:	d84a      	bhi.n	8004028 <find_volume+0x1b8>
 8003f92:	1c82      	adds	r2, r0, #2
 8003f94:	61e2      	str	r2, [r4, #28]
 8003f96:	6265      	str	r5, [r4, #36]	@ 0x24
 8003f98:	f104 0090 	add.w	r0, r4, #144	@ 0x90
 8003f9c:	f7fe fc32 	bl	8002804 <ld_dword>
 8003fa0:	eb00 0805 	add.w	r8, r0, r5
 8003fa4:	f8c4 8030 	str.w	r8, [r4, #48]	@ 0x30
 8003fa8:	f104 0088 	add.w	r0, r4, #136	@ 0x88
 8003fac:	f7fe fc2a 	bl	8002804 <ld_dword>
 8003fb0:	b29b      	uxth	r3, r3
 8003fb2:	4428      	add	r0, r5
 8003fb4:	62a0      	str	r0, [r4, #40]	@ 0x28
 8003fb6:	fb09 f003 	mul.w	r0, r9, r3
 8003fba:	eb10 0008 	adds.w	r0, r0, r8
 8003fbe:	4176      	adcs	r6, r6
 8003fc0:	4287      	cmp	r7, r0
 8003fc2:	eb71 0606 	sbcs.w	r6, r1, r6
 8003fc6:	d32f      	bcc.n	8004028 <find_volume+0x1b8>
 8003fc8:	f104 0098 	add.w	r0, r4, #152	@ 0x98
 8003fcc:	f7fe fc1a 	bl	8002804 <ld_dword>
 8003fd0:	4601      	mov	r1, r0
 8003fd2:	62e0      	str	r0, [r4, #44]	@ 0x2c
 8003fd4:	4620      	mov	r0, r4
 8003fd6:	f7fe fce1 	bl	800299c <clust2sect>
 8003fda:	4601      	mov	r1, r0
 8003fdc:	4620      	mov	r0, r4
 8003fde:	f7fe fda9 	bl	8002b34 <move_window>
 8003fe2:	b9e8      	cbnz	r0, 8004020 <find_volume+0x1b0>
 8003fe4:	f104 034c 	add.w	r3, r4, #76	@ 0x4c
 8003fe8:	2200      	movs	r2, #0
 8003fea:	f813 1c14 	ldrb.w	r1, [r3, #-20]
 8003fee:	2981      	cmp	r1, #129	@ 0x81
 8003ff0:	d105      	bne.n	8003ffe <find_volume+0x18e>
 8003ff2:	4618      	mov	r0, r3
 8003ff4:	f7fe fc06 	bl	8002804 <ld_dword>
 8003ff8:	2802      	cmp	r0, #2
 8003ffa:	f000 80d9 	beq.w	80041b0 <find_volume+0x340>
 8003ffe:	3220      	adds	r2, #32
 8004000:	f5b2 7f00 	cmp.w	r2, #512	@ 0x200
 8004004:	f103 0320 	add.w	r3, r3, #32
 8004008:	d1ef      	bne.n	8003fea <find_volume+0x17a>
 800400a:	e00d      	b.n	8004028 <find_volume+0x1b8>
 800400c:	2003      	movs	r0, #3
 800400e:	3601      	adds	r6, #1
 8004010:	2e04      	cmp	r6, #4
 8004012:	f47f af78 	bne.w	8003f06 <find_volume+0x96>
 8004016:	2804      	cmp	r0, #4
 8004018:	d106      	bne.n	8004028 <find_volume+0x1b8>
 800401a:	e001      	b.n	8004020 <find_volume+0x1b0>
 800401c:	2804      	cmp	r0, #4
 800401e:	d101      	bne.n	8004024 <find_volume+0x1b4>
 8004020:	2001      	movs	r0, #1
 8004022:	e748      	b.n	8003eb6 <find_volume+0x46>
 8004024:	2801      	cmp	r0, #1
 8004026:	d901      	bls.n	800402c <find_volume+0x1bc>
 8004028:	200d      	movs	r0, #13
 800402a:	e744      	b.n	8003eb6 <find_volume+0x46>
 800402c:	2500      	movs	r5, #0
 800402e:	e774      	b.n	8003f1a <find_volume+0xaa>
 8004030:	20001a50 	.word	0x20001a50
 8004034:	7ffffffd 	.word	0x7ffffffd
 8004038:	f8b4 3043 	ldrh.w	r3, [r4, #67]	@ 0x43
 800403c:	f5b3 7f00 	cmp.w	r3, #512	@ 0x200
 8004040:	d1f2      	bne.n	8004028 <find_volume+0x1b8>
 8004042:	f8b4 204e 	ldrh.w	r2, [r4, #78]	@ 0x4e
 8004046:	b922      	cbnz	r2, 8004052 <find_volume+0x1e2>
 8004048:	f104 005c 	add.w	r0, r4, #92	@ 0x5c
 800404c:	f7fe fbda 	bl	8002804 <ld_dword>
 8004050:	4602      	mov	r2, r0
 8004052:	f894 1048 	ldrb.w	r1, [r4, #72]	@ 0x48
 8004056:	6222      	str	r2, [r4, #32]
 8004058:	1e4b      	subs	r3, r1, #1
 800405a:	2b01      	cmp	r3, #1
 800405c:	70a1      	strb	r1, [r4, #2]
 800405e:	d8e3      	bhi.n	8004028 <find_volume+0x1b8>
 8004060:	f894 8045 	ldrb.w	r8, [r4, #69]	@ 0x45
 8004064:	f8a4 800a 	strh.w	r8, [r4, #10]
 8004068:	f1b8 0f00 	cmp.w	r8, #0
 800406c:	d0dc      	beq.n	8004028 <find_volume+0x1b8>
 800406e:	f108 33ff 	add.w	r3, r8, #4294967295
 8004072:	ea13 0f08 	tst.w	r3, r8
 8004076:	d1d7      	bne.n	8004028 <find_volume+0x1b8>
 8004078:	f8b4 7049 	ldrh.w	r7, [r4, #73]	@ 0x49
 800407c:	8127      	strh	r7, [r4, #8]
 800407e:	073b      	lsls	r3, r7, #28
 8004080:	d1d2      	bne.n	8004028 <find_volume+0x1b8>
 8004082:	f8b4 004b 	ldrh.w	r0, [r4, #75]	@ 0x4b
 8004086:	b918      	cbnz	r0, 8004090 <find_volume+0x220>
 8004088:	f104 0058 	add.w	r0, r4, #88	@ 0x58
 800408c:	f7fe fbba 	bl	8002804 <ld_dword>
 8004090:	f8b4 3046 	ldrh.w	r3, [r4, #70]	@ 0x46
 8004094:	2b00      	cmp	r3, #0
 8004096:	d0c7      	beq.n	8004028 <find_volume+0x1b8>
 8004098:	fb02 fc01 	mul.w	ip, r2, r1
 800409c:	eb03 1e17 	add.w	lr, r3, r7, lsr #4
 80040a0:	44e6      	add	lr, ip
 80040a2:	4570      	cmp	r0, lr
 80040a4:	d3c0      	bcc.n	8004028 <find_volume+0x1b8>
 80040a6:	eba0 060e 	sub.w	r6, r0, lr
 80040aa:	4546      	cmp	r6, r8
 80040ac:	fbb6 f1f8 	udiv	r1, r6, r8
 80040b0:	d3ba      	bcc.n	8004028 <find_volume+0x1b8>
 80040b2:	f64f 70f5 	movw	r0, #65525	@ 0xfff5
 80040b6:	4281      	cmp	r1, r0
 80040b8:	d863      	bhi.n	8004182 <find_volume+0x312>
 80040ba:	f640 76f5 	movw	r6, #4085	@ 0xff5
 80040be:	42b1      	cmp	r1, r6
 80040c0:	bf94      	ite	ls
 80040c2:	2601      	movls	r6, #1
 80040c4:	2602      	movhi	r6, #2
 80040c6:	3102      	adds	r1, #2
 80040c8:	442b      	add	r3, r5
 80040ca:	eb05 000e 	add.w	r0, r5, lr
 80040ce:	2e03      	cmp	r6, #3
 80040d0:	61e1      	str	r1, [r4, #28]
 80040d2:	6265      	str	r5, [r4, #36]	@ 0x24
 80040d4:	62a3      	str	r3, [r4, #40]	@ 0x28
 80040d6:	6320      	str	r0, [r4, #48]	@ 0x30
 80040d8:	d155      	bne.n	8004186 <find_volume+0x316>
 80040da:	f8b4 3062 	ldrh.w	r3, [r4, #98]	@ 0x62
 80040de:	433b      	orrs	r3, r7
 80040e0:	d1a2      	bne.n	8004028 <find_volume+0x1b8>
 80040e2:	f104 0064 	add.w	r0, r4, #100	@ 0x64
 80040e6:	f7fe fb8d 	bl	8002804 <ld_dword>
 80040ea:	008b      	lsls	r3, r1, #2
 80040ec:	f203 13ff 	addw	r3, r3, #511	@ 0x1ff
 80040f0:	ebb2 2f53 	cmp.w	r2, r3, lsr #9
 80040f4:	62e0      	str	r0, [r4, #44]	@ 0x2c
 80040f6:	d397      	bcc.n	8004028 <find_volume+0x1b8>
 80040f8:	f04f 33ff 	mov.w	r3, #4294967295
 80040fc:	e9c4 3305 	strd	r3, r3, [r4, #20]
 8004100:	2e03      	cmp	r6, #3
 8004102:	f04f 0380 	mov.w	r3, #128	@ 0x80
 8004106:	7123      	strb	r3, [r4, #4]
 8004108:	d12b      	bne.n	8004162 <find_volume+0x2f2>
 800410a:	f8b4 3068 	ldrh.w	r3, [r4, #104]	@ 0x68
 800410e:	2b01      	cmp	r3, #1
 8004110:	d127      	bne.n	8004162 <find_volume+0x2f2>
 8004112:	1c69      	adds	r1, r5, #1
 8004114:	4620      	mov	r0, r4
 8004116:	f7fe fd0d 	bl	8002b34 <move_window>
 800411a:	bb10      	cbnz	r0, 8004162 <find_volume+0x2f2>
 800411c:	f8b4 2236 	ldrh.w	r2, [r4, #566]	@ 0x236
 8004120:	7120      	strb	r0, [r4, #4]
 8004122:	f64a 2355 	movw	r3, #43605	@ 0xaa55
 8004126:	429a      	cmp	r2, r3
 8004128:	d11b      	bne.n	8004162 <find_volume+0x2f2>
 800412a:	f104 0038 	add.w	r0, r4, #56	@ 0x38
 800412e:	f7fe fb69 	bl	8002804 <ld_dword>
 8004132:	4b22      	ldr	r3, [pc, #136]	@ (80041bc <find_volume+0x34c>)
 8004134:	4298      	cmp	r0, r3
 8004136:	d114      	bne.n	8004162 <find_volume+0x2f2>
 8004138:	f504 7007 	add.w	r0, r4, #540	@ 0x21c
 800413c:	f7fe fb62 	bl	8002804 <ld_dword>
 8004140:	f103 53ff 	add.w	r3, r3, #534773760	@ 0x1fe00000
 8004144:	f503 5300 	add.w	r3, r3, #8192	@ 0x2000
 8004148:	3320      	adds	r3, #32
 800414a:	4298      	cmp	r0, r3
 800414c:	d109      	bne.n	8004162 <find_volume+0x2f2>
 800414e:	f504 7008 	add.w	r0, r4, #544	@ 0x220
 8004152:	f7fe fb57 	bl	8002804 <ld_dword>
 8004156:	61a0      	str	r0, [r4, #24]
 8004158:	f504 7009 	add.w	r0, r4, #548	@ 0x224
 800415c:	f7fe fb52 	bl	8002804 <ld_dword>
 8004160:	6160      	str	r0, [r4, #20]
 8004162:	4a17      	ldr	r2, [pc, #92]	@ (80041c0 <find_volume+0x350>)
 8004164:	7026      	strb	r6, [r4, #0]
 8004166:	8813      	ldrh	r3, [r2, #0]
 8004168:	3301      	adds	r3, #1
 800416a:	b29b      	uxth	r3, r3
 800416c:	8013      	strh	r3, [r2, #0]
 800416e:	80e3      	strh	r3, [r4, #6]
 8004170:	4b14      	ldr	r3, [pc, #80]	@ (80041c4 <find_volume+0x354>)
 8004172:	60e3      	str	r3, [r4, #12]
 8004174:	4b14      	ldr	r3, [pc, #80]	@ (80041c8 <find_volume+0x358>)
 8004176:	6123      	str	r3, [r4, #16]
 8004178:	4620      	mov	r0, r4
 800417a:	f7fe fc01 	bl	8002980 <clear_lock>
 800417e:	2000      	movs	r0, #0
 8004180:	e699      	b.n	8003eb6 <find_volume+0x46>
 8004182:	2603      	movs	r6, #3
 8004184:	e79f      	b.n	80040c6 <find_volume+0x256>
 8004186:	2f00      	cmp	r7, #0
 8004188:	f43f af4e 	beq.w	8004028 <find_volume+0x1b8>
 800418c:	2e02      	cmp	r6, #2
 800418e:	eb03 000c 	add.w	r0, r3, ip
 8004192:	ea4f 0341 	mov.w	r3, r1, lsl #1
 8004196:	bf1e      	ittt	ne
 8004198:	185b      	addne	r3, r3, r1
 800419a:	f001 0101 	andne.w	r1, r1, #1
 800419e:	eb01 0353 	addne.w	r3, r1, r3, lsr #1
 80041a2:	e7a3      	b.n	80040ec <find_volume+0x27c>
 80041a4:	200b      	movs	r0, #11
 80041a6:	e686      	b.n	8003eb6 <find_volume+0x46>
 80041a8:	200c      	movs	r0, #12
 80041aa:	e684      	b.n	8003eb6 <find_volume+0x46>
 80041ac:	2003      	movs	r0, #3
 80041ae:	e682      	b.n	8003eb6 <find_volume+0x46>
 80041b0:	f04f 33ff 	mov.w	r3, #4294967295
 80041b4:	e9c4 3305 	strd	r3, r3, [r4, #20]
 80041b8:	2604      	movs	r6, #4
 80041ba:	e7d2      	b.n	8004162 <find_volume+0x2f2>
 80041bc:	41615252 	.word	0x41615252
 80041c0:	20001a4c 	.word	0x20001a4c
 80041c4:	200015cc 	.word	0x200015cc
 80041c8:	200017cc 	.word	0x200017cc

080041cc <f_mount>:
 80041cc:	b530      	push	{r4, r5, lr}
 80041ce:	b085      	sub	sp, #20
 80041d0:	e9cd 1000 	strd	r1, r0, [sp]
 80041d4:	a803      	add	r0, sp, #12
 80041d6:	9103      	str	r1, [sp, #12]
 80041d8:	4614      	mov	r4, r2
 80041da:	f7fe fc26 	bl	8002a2a <get_ldnumber>
 80041de:	1e01      	subs	r1, r0, #0
 80041e0:	db19      	blt.n	8004216 <f_mount+0x4a>
 80041e2:	4d0e      	ldr	r5, [pc, #56]	@ (800421c <f_mount+0x50>)
 80041e4:	f855 0021 	ldr.w	r0, [r5, r1, lsl #2]
 80041e8:	b118      	cbz	r0, 80041f2 <f_mount+0x26>
 80041ea:	f7fe fbc9 	bl	8002980 <clear_lock>
 80041ee:	2300      	movs	r3, #0
 80041f0:	7003      	strb	r3, [r0, #0]
 80041f2:	9b01      	ldr	r3, [sp, #4]
 80041f4:	b923      	cbnz	r3, 8004200 <f_mount+0x34>
 80041f6:	f845 3021 	str.w	r3, [r5, r1, lsl #2]
 80041fa:	2000      	movs	r0, #0
 80041fc:	b005      	add	sp, #20
 80041fe:	bd30      	pop	{r4, r5, pc}
 8004200:	2200      	movs	r2, #0
 8004202:	2c01      	cmp	r4, #1
 8004204:	f845 3021 	str.w	r3, [r5, r1, lsl #2]
 8004208:	701a      	strb	r2, [r3, #0]
 800420a:	d1f6      	bne.n	80041fa <f_mount+0x2e>
 800420c:	a901      	add	r1, sp, #4
 800420e:	4668      	mov	r0, sp
 8004210:	f7ff fe2e 	bl	8003e70 <find_volume>
 8004214:	e7f2      	b.n	80041fc <f_mount+0x30>
 8004216:	200b      	movs	r0, #11
 8004218:	e7f0      	b.n	80041fc <f_mount+0x30>
 800421a:	bf00      	nop
 800421c:	20001a50 	.word	0x20001a50

08004220 <f_open>:
 8004220:	e92d 4ff0 	stmdb	sp!, {r4, r5, r6, r7, r8, r9, sl, fp, lr}
 8004224:	b099      	sub	sp, #100	@ 0x64
 8004226:	4616      	mov	r6, r2
 8004228:	9101      	str	r1, [sp, #4]
 800422a:	4604      	mov	r4, r0
 800422c:	2800      	cmp	r0, #0
 800422e:	f000 8191 	beq.w	8004554 <f_open+0x334>
 8004232:	f002 093f 	and.w	r9, r2, #63	@ 0x3f
 8004236:	464a      	mov	r2, r9
 8004238:	a903      	add	r1, sp, #12
 800423a:	a801      	add	r0, sp, #4
 800423c:	f7ff fe18 	bl	8003e70 <find_volume>
 8004240:	4607      	mov	r7, r0
 8004242:	2800      	cmp	r0, #0
 8004244:	f040 80f0 	bne.w	8004428 <f_open+0x208>
 8004248:	9d03      	ldr	r5, [sp, #12]
 800424a:	9901      	ldr	r1, [sp, #4]
 800424c:	9504      	str	r5, [sp, #16]
 800424e:	a804      	add	r0, sp, #16
 8004250:	f7ff fc66 	bl	8003b20 <follow_path>
 8004254:	b960      	cbnz	r0, 8004270 <f_open+0x50>
 8004256:	f99d 305b 	ldrsb.w	r3, [sp, #91]	@ 0x5b
 800425a:	2b00      	cmp	r3, #0
 800425c:	f2c0 8093 	blt.w	8004386 <f_open+0x166>
 8004260:	f016 0f3e 	tst.w	r6, #62	@ 0x3e
 8004264:	bf14      	ite	ne
 8004266:	2101      	movne	r1, #1
 8004268:	2100      	moveq	r1, #0
 800426a:	a804      	add	r0, sp, #16
 800426c:	f7fe faee 	bl	800284c <chk_lock>
 8004270:	f016 0f1c 	tst.w	r6, #28
 8004274:	f000 80be 	beq.w	80043f4 <f_open+0x1d4>
 8004278:	2800      	cmp	r0, #0
 800427a:	f000 8086 	beq.w	800438a <f_open+0x16a>
 800427e:	2804      	cmp	r0, #4
 8004280:	f040 80d2 	bne.w	8004428 <f_open+0x208>
 8004284:	4bb4      	ldr	r3, [pc, #720]	@ (8004558 <f_open+0x338>)
 8004286:	681a      	ldr	r2, [r3, #0]
 8004288:	b11a      	cbz	r2, 8004292 <f_open+0x72>
 800428a:	691b      	ldr	r3, [r3, #16]
 800428c:	2b00      	cmp	r3, #0
 800428e:	f040 815b 	bne.w	8004548 <f_open+0x328>
 8004292:	a804      	add	r0, sp, #16
 8004294:	f7ff fa82 	bl	800379c <dir_register>
 8004298:	2800      	cmp	r0, #0
 800429a:	f040 80c5 	bne.w	8004428 <f_open+0x208>
 800429e:	f049 0908 	orr.w	r9, r9, #8
 80042a2:	f019 0f08 	tst.w	r9, #8
 80042a6:	f000 80b0 	beq.w	800440a <f_open+0x1ea>
 80042aa:	f7fd ff3b 	bl	8002124 <get_fattime>
 80042ae:	782b      	ldrb	r3, [r5, #0]
 80042b0:	2b04      	cmp	r3, #4
 80042b2:	4606      	mov	r6, r0
 80042b4:	d173      	bne.n	800439e <f_open+0x17e>
 80042b6:	f8d5 8010 	ldr.w	r8, [r5, #16]
 80042ba:	6025      	str	r5, [r4, #0]
 80042bc:	f108 0034 	add.w	r0, r8, #52	@ 0x34
 80042c0:	f7fe faa0 	bl	8002804 <ld_dword>
 80042c4:	60a0      	str	r0, [r4, #8]
 80042c6:	f108 0038 	add.w	r0, r8, #56	@ 0x38
 80042ca:	f7fe fa9d 	bl	8002808 <ld_qword>
 80042ce:	e9c4 0104 	strd	r0, r1, [r4, #16]
 80042d2:	f898 3021 	ldrb.w	r3, [r8, #33]	@ 0x21
 80042d6:	2200      	movs	r2, #0
 80042d8:	f003 0302 	and.w	r3, r3, #2
 80042dc:	71e3      	strb	r3, [r4, #7]
 80042de:	61e2      	str	r2, [r4, #28]
 80042e0:	4631      	mov	r1, r6
 80042e2:	f108 0008 	add.w	r0, r8, #8
 80042e6:	f7fe fa93 	bl	8002810 <st_dword>
 80042ea:	692b      	ldr	r3, [r5, #16]
 80042ec:	751a      	strb	r2, [r3, #20]
 80042ee:	6928      	ldr	r0, [r5, #16]
 80042f0:	4631      	mov	r1, r6
 80042f2:	300c      	adds	r0, #12
 80042f4:	f7fe fa8c 	bl	8002810 <st_dword>
 80042f8:	692b      	ldr	r3, [r5, #16]
 80042fa:	755a      	strb	r2, [r3, #21]
 80042fc:	692b      	ldr	r3, [r5, #16]
 80042fe:	2120      	movs	r1, #32
 8004300:	7119      	strb	r1, [r3, #4]
 8004302:	692b      	ldr	r3, [r5, #16]
 8004304:	f883 2034 	strb.w	r2, [r3, #52]	@ 0x34
 8004308:	f883 2035 	strb.w	r2, [r3, #53]	@ 0x35
 800430c:	f883 2036 	strb.w	r2, [r3, #54]	@ 0x36
 8004310:	f883 2037 	strb.w	r2, [r3, #55]	@ 0x37
 8004314:	692b      	ldr	r3, [r5, #16]
 8004316:	f883 2038 	strb.w	r2, [r3, #56]	@ 0x38
 800431a:	f883 2039 	strb.w	r2, [r3, #57]	@ 0x39
 800431e:	f883 203a 	strb.w	r2, [r3, #58]	@ 0x3a
 8004322:	f883 203b 	strb.w	r2, [r3, #59]	@ 0x3b
 8004326:	f883 203c 	strb.w	r2, [r3, #60]	@ 0x3c
 800432a:	f883 203d 	strb.w	r2, [r3, #61]	@ 0x3d
 800432e:	f883 203e 	strb.w	r2, [r3, #62]	@ 0x3e
 8004332:	f883 203f 	strb.w	r2, [r3, #63]	@ 0x3f
 8004336:	692b      	ldr	r3, [r5, #16]
 8004338:	f883 2028 	strb.w	r2, [r3, #40]	@ 0x28
 800433c:	f883 2029 	strb.w	r2, [r3, #41]	@ 0x29
 8004340:	f883 202a 	strb.w	r2, [r3, #42]	@ 0x2a
 8004344:	f883 202b 	strb.w	r2, [r3, #43]	@ 0x2b
 8004348:	f883 202c 	strb.w	r2, [r3, #44]	@ 0x2c
 800434c:	f883 202d 	strb.w	r2, [r3, #45]	@ 0x2d
 8004350:	f883 202e 	strb.w	r2, [r3, #46]	@ 0x2e
 8004354:	f883 202f 	strb.w	r2, [r3, #47]	@ 0x2f
 8004358:	692b      	ldr	r3, [r5, #16]
 800435a:	2201      	movs	r2, #1
 800435c:	f883 2021 	strb.w	r2, [r3, #33]	@ 0x21
 8004360:	a804      	add	r0, sp, #16
 8004362:	f7ff f85a 	bl	800341a <store_xdir>
 8004366:	2800      	cmp	r0, #0
 8004368:	d15e      	bne.n	8004428 <f_open+0x208>
 800436a:	68a1      	ldr	r1, [r4, #8]
 800436c:	b141      	cbz	r1, 8004380 <f_open+0x160>
 800436e:	4602      	mov	r2, r0
 8004370:	4620      	mov	r0, r4
 8004372:	f7fe fdbc 	bl	8002eee <remove_chain>
 8004376:	68a6      	ldr	r6, [r4, #8]
 8004378:	3e01      	subs	r6, #1
 800437a:	616e      	str	r6, [r5, #20]
 800437c:	2800      	cmp	r0, #0
 800437e:	d153      	bne.n	8004428 <f_open+0x208>
 8004380:	f049 0940 	orr.w	r9, r9, #64	@ 0x40
 8004384:	e041      	b.n	800440a <f_open+0x1ea>
 8004386:	2006      	movs	r0, #6
 8004388:	e772      	b.n	8004270 <f_open+0x50>
 800438a:	f89d 3016 	ldrb.w	r3, [sp, #22]
 800438e:	f013 0f11 	tst.w	r3, #17
 8004392:	f040 80dd 	bne.w	8004550 <f_open+0x330>
 8004396:	0770      	lsls	r0, r6, #29
 8004398:	d583      	bpl.n	80042a2 <f_open+0x82>
 800439a:	2008      	movs	r0, #8
 800439c:	e044      	b.n	8004428 <f_open+0x208>
 800439e:	9a13      	ldr	r2, [sp, #76]	@ 0x4c
 80043a0:	4601      	mov	r1, r0
 80043a2:	f102 000e 	add.w	r0, r2, #14
 80043a6:	f7fe fa33 	bl	8002810 <st_dword>
 80043aa:	f102 0016 	add.w	r0, r2, #22
 80043ae:	4631      	mov	r1, r6
 80043b0:	f7fe fa2e 	bl	8002810 <st_dword>
 80043b4:	2320      	movs	r3, #32
 80043b6:	72d3      	strb	r3, [r2, #11]
 80043b8:	4611      	mov	r1, r2
 80043ba:	7828      	ldrb	r0, [r5, #0]
 80043bc:	f7ff fba8 	bl	8003b10 <ld_clust.isra.0>
 80043c0:	2200      	movs	r2, #0
 80043c2:	4606      	mov	r6, r0
 80043c4:	4628      	mov	r0, r5
 80043c6:	f7fe fba9 	bl	8002b1c <st_clust>
 80043ca:	2200      	movs	r2, #0
 80043cc:	2301      	movs	r3, #1
 80043ce:	770a      	strb	r2, [r1, #28]
 80043d0:	774a      	strb	r2, [r1, #29]
 80043d2:	778a      	strb	r2, [r1, #30]
 80043d4:	77ca      	strb	r2, [r1, #31]
 80043d6:	70eb      	strb	r3, [r5, #3]
 80043d8:	2e00      	cmp	r6, #0
 80043da:	d0d1      	beq.n	8004380 <f_open+0x160>
 80043dc:	4631      	mov	r1, r6
 80043de:	a804      	add	r0, sp, #16
 80043e0:	f8d5 8034 	ldr.w	r8, [r5, #52]	@ 0x34
 80043e4:	f7fe fd83 	bl	8002eee <remove_chain>
 80043e8:	b9f0      	cbnz	r0, 8004428 <f_open+0x208>
 80043ea:	4641      	mov	r1, r8
 80043ec:	4628      	mov	r0, r5
 80043ee:	f7fe fba1 	bl	8002b34 <move_window>
 80043f2:	e7c1      	b.n	8004378 <f_open+0x158>
 80043f4:	b9c0      	cbnz	r0, 8004428 <f_open+0x208>
 80043f6:	f89d 3016 	ldrb.w	r3, [sp, #22]
 80043fa:	06da      	lsls	r2, r3, #27
 80043fc:	f100 80a6 	bmi.w	800454c <f_open+0x32c>
 8004400:	07b0      	lsls	r0, r6, #30
 8004402:	d502      	bpl.n	800440a <f_open+0x1ea>
 8004404:	07da      	lsls	r2, r3, #31
 8004406:	f100 80a3 	bmi.w	8004550 <f_open+0x330>
 800440a:	6b6b      	ldr	r3, [r5, #52]	@ 0x34
 800440c:	9e13      	ldr	r6, [sp, #76]	@ 0x4c
 800440e:	64a3      	str	r3, [r4, #72]	@ 0x48
 8004410:	f1b9 0f01 	cmp.w	r9, #1
 8004414:	64e6      	str	r6, [r4, #76]	@ 0x4c
 8004416:	bf94      	ite	ls
 8004418:	2100      	movls	r1, #0
 800441a:	2101      	movhi	r1, #1
 800441c:	a804      	add	r0, sp, #16
 800441e:	f7fe fa4f 	bl	80028c0 <inc_lock>
 8004422:	62e0      	str	r0, [r4, #44]	@ 0x2c
 8004424:	b938      	cbnz	r0, 8004436 <f_open+0x216>
 8004426:	2002      	movs	r0, #2
 8004428:	2300      	movs	r3, #0
 800442a:	6023      	str	r3, [r4, #0]
 800442c:	4607      	mov	r7, r0
 800442e:	4638      	mov	r0, r7
 8004430:	b019      	add	sp, #100	@ 0x64
 8004432:	e8bd 8ff0 	ldmia.w	sp!, {r4, r5, r6, r7, r8, r9, sl, fp, pc}
 8004436:	7828      	ldrb	r0, [r5, #0]
 8004438:	2804      	cmp	r0, #4
 800443a:	d15c      	bne.n	80044f6 <f_open+0x2d6>
 800443c:	9b06      	ldr	r3, [sp, #24]
 800443e:	6223      	str	r3, [r4, #32]
 8004440:	9b08      	ldr	r3, [sp, #32]
 8004442:	f89d 2017 	ldrb.w	r2, [sp, #23]
 8004446:	f023 03ff 	bic.w	r3, r3, #255	@ 0xff
 800444a:	4313      	orrs	r3, r2
 800444c:	692a      	ldr	r2, [r5, #16]
 800444e:	6263      	str	r3, [r4, #36]	@ 0x24
 8004450:	9b17      	ldr	r3, [sp, #92]	@ 0x5c
 8004452:	62a3      	str	r3, [r4, #40]	@ 0x28
 8004454:	f102 0034 	add.w	r0, r2, #52	@ 0x34
 8004458:	f7fe f9d4 	bl	8002804 <ld_dword>
 800445c:	60a0      	str	r0, [r4, #8]
 800445e:	f102 0038 	add.w	r0, r2, #56	@ 0x38
 8004462:	f7fe f9d1 	bl	8002808 <ld_qword>
 8004466:	e9c4 0104 	strd	r0, r1, [r4, #16]
 800446a:	f892 3021 	ldrb.w	r3, [r2, #33]	@ 0x21
 800446e:	f003 0302 	and.w	r3, r3, #2
 8004472:	71e3      	strb	r3, [r4, #7]
 8004474:	88eb      	ldrh	r3, [r5, #6]
 8004476:	80a3      	strh	r3, [r4, #4]
 8004478:	f04f 0a00 	mov.w	sl, #0
 800447c:	2200      	movs	r2, #0
 800447e:	2300      	movs	r3, #0
 8004480:	f104 0854 	add.w	r8, r4, #84	@ 0x54
 8004484:	e9c4 230e 	strd	r2, r3, [r4, #56]	@ 0x38
 8004488:	f8c4 a050 	str.w	sl, [r4, #80]	@ 0x50
 800448c:	6025      	str	r5, [r4, #0]
 800448e:	f884 9030 	strb.w	r9, [r4, #48]	@ 0x30
 8004492:	f884 a031 	strb.w	sl, [r4, #49]	@ 0x31
 8004496:	f8c4 a044 	str.w	sl, [r4, #68]	@ 0x44
 800449a:	f44f 7200 	mov.w	r2, #512	@ 0x200
 800449e:	4651      	mov	r1, sl
 80044a0:	4640      	mov	r0, r8
 80044a2:	f7fe f9cc 	bl	800283e <mem_set>
 80044a6:	f019 0f20 	tst.w	r9, #32
 80044aa:	d0c0      	beq.n	800442e <f_open+0x20e>
 80044ac:	e9d4 6904 	ldrd	r6, r9, [r4, #16]
 80044b0:	ea56 0309 	orrs.w	r3, r6, r9
 80044b4:	d0bb      	beq.n	800442e <f_open+0x20e>
 80044b6:	f8b5 b00a 	ldrh.w	fp, [r5, #10]
 80044ba:	68a1      	ldr	r1, [r4, #8]
 80044bc:	ea4f 2b4b 	mov.w	fp, fp, lsl #9
 80044c0:	45b3      	cmp	fp, r6
 80044c2:	eb7a 0309 	sbcs.w	r3, sl, r9
 80044c6:	e9c4 690e 	strd	r6, r9, [r4, #56]	@ 0x38
 80044ca:	d220      	bcs.n	800450e <f_open+0x2ee>
 80044cc:	4620      	mov	r0, r4
 80044ce:	f7fe fb87 	bl	8002be0 <get_fat>
 80044d2:	ebb6 060b 	subs.w	r6, r6, fp
 80044d6:	f169 0900 	sbc.w	r9, r9, #0
 80044da:	2801      	cmp	r0, #1
 80044dc:	4601      	mov	r1, r0
 80044de:	d92f      	bls.n	8004540 <f_open+0x320>
 80044e0:	1c43      	adds	r3, r0, #1
 80044e2:	d02f      	beq.n	8004544 <f_open+0x324>
 80044e4:	45b3      	cmp	fp, r6
 80044e6:	eb7a 0309 	sbcs.w	r3, sl, r9
 80044ea:	d3ef      	bcc.n	80044cc <f_open+0x2ac>
 80044ec:	2000      	movs	r0, #0
 80044ee:	6421      	str	r1, [r4, #64]	@ 0x40
 80044f0:	2800      	cmp	r0, #0
 80044f2:	d199      	bne.n	8004428 <f_open+0x208>
 80044f4:	e00c      	b.n	8004510 <f_open+0x2f0>
 80044f6:	4631      	mov	r1, r6
 80044f8:	f7ff fb0a 	bl	8003b10 <ld_clust.isra.0>
 80044fc:	60a0      	str	r0, [r4, #8]
 80044fe:	f106 001c 	add.w	r0, r6, #28
 8004502:	f7fe f97f 	bl	8002804 <ld_dword>
 8004506:	2300      	movs	r3, #0
 8004508:	6120      	str	r0, [r4, #16]
 800450a:	6163      	str	r3, [r4, #20]
 800450c:	e7b2      	b.n	8004474 <f_open+0x254>
 800450e:	6421      	str	r1, [r4, #64]	@ 0x40
 8004510:	f3c6 0308 	ubfx	r3, r6, #0, #9
 8004514:	2b00      	cmp	r3, #0
 8004516:	d08a      	beq.n	800442e <f_open+0x20e>
 8004518:	4628      	mov	r0, r5
 800451a:	f7fe fa3f 	bl	800299c <clust2sect>
 800451e:	2800      	cmp	r0, #0
 8004520:	d081      	beq.n	8004426 <f_open+0x206>
 8004522:	0a76      	lsrs	r6, r6, #9
 8004524:	ea46 56c9 	orr.w	r6, r6, r9, lsl #23
 8004528:	1982      	adds	r2, r0, r6
 800452a:	6462      	str	r2, [r4, #68]	@ 0x44
 800452c:	7868      	ldrb	r0, [r5, #1]
 800452e:	2301      	movs	r3, #1
 8004530:	4641      	mov	r1, r8
 8004532:	f7fe f93d 	bl	80027b0 <disk_read>
 8004536:	2800      	cmp	r0, #0
 8004538:	f43f af79 	beq.w	800442e <f_open+0x20e>
 800453c:	2001      	movs	r0, #1
 800453e:	e773      	b.n	8004428 <f_open+0x208>
 8004540:	2002      	movs	r0, #2
 8004542:	e7d4      	b.n	80044ee <f_open+0x2ce>
 8004544:	2001      	movs	r0, #1
 8004546:	e7d2      	b.n	80044ee <f_open+0x2ce>
 8004548:	2012      	movs	r0, #18
 800454a:	e76d      	b.n	8004428 <f_open+0x208>
 800454c:	2004      	movs	r0, #4
 800454e:	e76b      	b.n	8004428 <f_open+0x208>
 8004550:	2007      	movs	r0, #7
 8004552:	e769      	b.n	8004428 <f_open+0x208>
 8004554:	2709      	movs	r7, #9
 8004556:	e76a      	b.n	800442e <f_open+0x20e>
 8004558:	20001a2c 	.word	0x20001a2c

0800455c <f_read>:
 800455c:	e92d 4ff0 	stmdb	sp!, {r4, r5, r6, r7, r8, r9, sl, fp, lr}
 8004560:	469b      	mov	fp, r3
 8004562:	b087      	sub	sp, #28
 8004564:	2300      	movs	r3, #0
 8004566:	4689      	mov	r9, r1
 8004568:	f8cb 3000 	str.w	r3, [fp]
 800456c:	a905      	add	r1, sp, #20
 800456e:	4604      	mov	r4, r0
 8004570:	4616      	mov	r6, r2
 8004572:	f7fe fa72 	bl	8002a5a <validate>
 8004576:	4605      	mov	r5, r0
 8004578:	bba8      	cbnz	r0, 80045e6 <f_read+0x8a>
 800457a:	f894 5031 	ldrb.w	r5, [r4, #49]	@ 0x31
 800457e:	bb95      	cbnz	r5, 80045e6 <f_read+0x8a>
 8004580:	f894 3030 	ldrb.w	r3, [r4, #48]	@ 0x30
 8004584:	f013 0301 	ands.w	r3, r3, #1
 8004588:	9301      	str	r3, [sp, #4]
 800458a:	f000 80b3 	beq.w	80046f4 <f_read+0x198>
 800458e:	e9d4 3204 	ldrd	r3, r2, [r4, #16]
 8004592:	e9d4 010e 	ldrd	r0, r1, [r4, #56]	@ 0x38
 8004596:	1a1b      	subs	r3, r3, r0
 8004598:	eb62 0201 	sbc.w	r2, r2, r1
 800459c:	42b3      	cmp	r3, r6
 800459e:	f172 0200 	sbcs.w	r2, r2, #0
 80045a2:	bf38      	it	cc
 80045a4:	461e      	movcc	r6, r3
 80045a6:	f104 0354 	add.w	r3, r4, #84	@ 0x54
 80045aa:	9302      	str	r3, [sp, #8]
 80045ac:	b1de      	cbz	r6, 80045e6 <f_read+0x8a>
 80045ae:	e9d4 230e 	ldrd	r2, r3, [r4, #56]	@ 0x38
 80045b2:	f3c2 0108 	ubfx	r1, r2, #0, #9
 80045b6:	2900      	cmp	r1, #0
 80045b8:	f040 808d 	bne.w	80046d6 <f_read+0x17a>
 80045bc:	f8dd a014 	ldr.w	sl, [sp, #20]
 80045c0:	f8ba 800a 	ldrh.w	r8, [sl, #10]
 80045c4:	0a51      	lsrs	r1, r2, #9
 80045c6:	f108 38ff 	add.w	r8, r8, #4294967295
 80045ca:	ea41 51c3 	orr.w	r1, r1, r3, lsl #23
 80045ce:	ea18 0801 	ands.w	r8, r8, r1
 80045d2:	d11f      	bne.n	8004614 <f_read+0xb8>
 80045d4:	ea52 0103 	orrs.w	r1, r2, r3
 80045d8:	d109      	bne.n	80045ee <f_read+0x92>
 80045da:	68a0      	ldr	r0, [r4, #8]
 80045dc:	2801      	cmp	r0, #1
 80045de:	d811      	bhi.n	8004604 <f_read+0xa8>
 80045e0:	2502      	movs	r5, #2
 80045e2:	f884 5031 	strb.w	r5, [r4, #49]	@ 0x31
 80045e6:	4628      	mov	r0, r5
 80045e8:	b007      	add	sp, #28
 80045ea:	e8bd 8ff0 	ldmia.w	sp!, {r4, r5, r6, r7, r8, r9, sl, fp, pc}
 80045ee:	6d21      	ldr	r1, [r4, #80]	@ 0x50
 80045f0:	b119      	cbz	r1, 80045fa <f_read+0x9e>
 80045f2:	4620      	mov	r0, r4
 80045f4:	f7fe f9dd 	bl	80029b2 <clmt_clust>
 80045f8:	e7f0      	b.n	80045dc <f_read+0x80>
 80045fa:	6c21      	ldr	r1, [r4, #64]	@ 0x40
 80045fc:	4620      	mov	r0, r4
 80045fe:	f7fe faef 	bl	8002be0 <get_fat>
 8004602:	e7eb      	b.n	80045dc <f_read+0x80>
 8004604:	1c43      	adds	r3, r0, #1
 8004606:	d104      	bne.n	8004612 <f_read+0xb6>
 8004608:	2301      	movs	r3, #1
 800460a:	9d01      	ldr	r5, [sp, #4]
 800460c:	f884 3031 	strb.w	r3, [r4, #49]	@ 0x31
 8004610:	e7e9      	b.n	80045e6 <f_read+0x8a>
 8004612:	6420      	str	r0, [r4, #64]	@ 0x40
 8004614:	6c21      	ldr	r1, [r4, #64]	@ 0x40
 8004616:	4650      	mov	r0, sl
 8004618:	f7fe f9c0 	bl	800299c <clust2sect>
 800461c:	2800      	cmp	r0, #0
 800461e:	d0df      	beq.n	80045e0 <f_read+0x84>
 8004620:	f5b6 7f00 	cmp.w	r6, #512	@ 0x200
 8004624:	eb08 0700 	add.w	r7, r8, r0
 8004628:	d334      	bcc.n	8004694 <f_read+0x138>
 800462a:	f8ba 200a 	ldrh.w	r2, [sl, #10]
 800462e:	f89a 0001 	ldrb.w	r0, [sl, #1]
 8004632:	eb08 2156 	add.w	r1, r8, r6, lsr #9
 8004636:	4291      	cmp	r1, r2
 8004638:	ea4f 2356 	mov.w	r3, r6, lsr #9
 800463c:	4649      	mov	r1, r9
 800463e:	bf88      	it	hi
 8004640:	eba2 0308 	subhi.w	r3, r2, r8
 8004644:	463a      	mov	r2, r7
 8004646:	9303      	str	r3, [sp, #12]
 8004648:	f7fe f8b2 	bl	80027b0 <disk_read>
 800464c:	2800      	cmp	r0, #0
 800464e:	d1db      	bne.n	8004608 <f_read+0xac>
 8004650:	f994 2030 	ldrsb.w	r2, [r4, #48]	@ 0x30
 8004654:	9b03      	ldr	r3, [sp, #12]
 8004656:	2a00      	cmp	r2, #0
 8004658:	da0c      	bge.n	8004674 <f_read+0x118>
 800465a:	6c60      	ldr	r0, [r4, #68]	@ 0x44
 800465c:	1bc0      	subs	r0, r0, r7
 800465e:	4298      	cmp	r0, r3
 8004660:	d208      	bcs.n	8004674 <f_read+0x118>
 8004662:	f44f 7200 	mov.w	r2, #512	@ 0x200
 8004666:	f104 0154 	add.w	r1, r4, #84	@ 0x54
 800466a:	eb09 2040 	add.w	r0, r9, r0, lsl #9
 800466e:	f7fe fa4c 	bl	8002b0a <mem_cpy.part.0>
 8004672:	9b03      	ldr	r3, [sp, #12]
 8004674:	025f      	lsls	r7, r3, #9
 8004676:	e9d4 320e 	ldrd	r3, r2, [r4, #56]	@ 0x38
 800467a:	19db      	adds	r3, r3, r7
 800467c:	f142 0200 	adc.w	r2, r2, #0
 8004680:	e9c4 320e 	strd	r3, r2, [r4, #56]	@ 0x38
 8004684:	f8db 3000 	ldr.w	r3, [fp]
 8004688:	443b      	add	r3, r7
 800468a:	44b9      	add	r9, r7
 800468c:	f8cb 3000 	str.w	r3, [fp]
 8004690:	1bf6      	subs	r6, r6, r7
 8004692:	e78b      	b.n	80045ac <f_read+0x50>
 8004694:	6c62      	ldr	r2, [r4, #68]	@ 0x44
 8004696:	42ba      	cmp	r2, r7
 8004698:	d01c      	beq.n	80046d4 <f_read+0x178>
 800469a:	f994 3030 	ldrsb.w	r3, [r4, #48]	@ 0x30
 800469e:	f89a 0001 	ldrb.w	r0, [sl, #1]
 80046a2:	2b00      	cmp	r3, #0
 80046a4:	f104 0854 	add.w	r8, r4, #84	@ 0x54
 80046a8:	da0b      	bge.n	80046c2 <f_read+0x166>
 80046aa:	2301      	movs	r3, #1
 80046ac:	4641      	mov	r1, r8
 80046ae:	f7fe f88d 	bl	80027cc <disk_write>
 80046b2:	2800      	cmp	r0, #0
 80046b4:	d1a8      	bne.n	8004608 <f_read+0xac>
 80046b6:	f894 3030 	ldrb.w	r3, [r4, #48]	@ 0x30
 80046ba:	f003 037f 	and.w	r3, r3, #127	@ 0x7f
 80046be:	f884 3030 	strb.w	r3, [r4, #48]	@ 0x30
 80046c2:	f89a 0001 	ldrb.w	r0, [sl, #1]
 80046c6:	2301      	movs	r3, #1
 80046c8:	463a      	mov	r2, r7
 80046ca:	4641      	mov	r1, r8
 80046cc:	f7fe f870 	bl	80027b0 <disk_read>
 80046d0:	2800      	cmp	r0, #0
 80046d2:	d199      	bne.n	8004608 <f_read+0xac>
 80046d4:	6467      	str	r7, [r4, #68]	@ 0x44
 80046d6:	6ba1      	ldr	r1, [r4, #56]	@ 0x38
 80046d8:	9b02      	ldr	r3, [sp, #8]
 80046da:	f3c1 0108 	ubfx	r1, r1, #0, #9
 80046de:	f5c1 7700 	rsb	r7, r1, #512	@ 0x200
 80046e2:	42b7      	cmp	r7, r6
 80046e4:	bf28      	it	cs
 80046e6:	4637      	movcs	r7, r6
 80046e8:	463a      	mov	r2, r7
 80046ea:	4419      	add	r1, r3
 80046ec:	4648      	mov	r0, r9
 80046ee:	f7fe fa0c 	bl	8002b0a <mem_cpy.part.0>
 80046f2:	e7c0      	b.n	8004676 <f_read+0x11a>
 80046f4:	2507      	movs	r5, #7
 80046f6:	e776      	b.n	80045e6 <f_read+0x8a>

080046f8 <f_sync>:
 80046f8:	e92d 41f0 	stmdb	sp!, {r4, r5, r6, r7, r8, lr}
 80046fc:	b096      	sub	sp, #88	@ 0x58
 80046fe:	a901      	add	r1, sp, #4
 8004700:	4605      	mov	r5, r0
 8004702:	f7fe f9aa 	bl	8002a5a <validate>
 8004706:	4604      	mov	r4, r0
 8004708:	2800      	cmp	r0, #0
 800470a:	d17c      	bne.n	8004806 <f_sync+0x10e>
 800470c:	f895 3030 	ldrb.w	r3, [r5, #48]	@ 0x30
 8004710:	f013 0440 	ands.w	r4, r3, #64	@ 0x40
 8004714:	d077      	beq.n	8004806 <f_sync+0x10e>
 8004716:	061b      	lsls	r3, r3, #24
 8004718:	9e01      	ldr	r6, [sp, #4]
 800471a:	d50f      	bpl.n	800473c <f_sync+0x44>
 800471c:	6c6a      	ldr	r2, [r5, #68]	@ 0x44
 800471e:	7870      	ldrb	r0, [r6, #1]
 8004720:	2301      	movs	r3, #1
 8004722:	f105 0154 	add.w	r1, r5, #84	@ 0x54
 8004726:	f7fe f851 	bl	80027cc <disk_write>
 800472a:	2800      	cmp	r0, #0
 800472c:	f040 808f 	bne.w	800484e <f_sync+0x156>
 8004730:	f895 3030 	ldrb.w	r3, [r5, #48]	@ 0x30
 8004734:	f003 037f 	and.w	r3, r3, #127	@ 0x7f
 8004738:	f885 3030 	strb.w	r3, [r5, #48]	@ 0x30
 800473c:	f7fd fcf2 	bl	8002124 <get_fattime>
 8004740:	7833      	ldrb	r3, [r6, #0]
 8004742:	2b04      	cmp	r3, #4
 8004744:	4680      	mov	r8, r0
 8004746:	d162      	bne.n	800480e <f_sync+0x116>
 8004748:	4628      	mov	r0, r5
 800474a:	f7fe fbb8 	bl	8002ebe <fill_first_frag>
 800474e:	4604      	mov	r4, r0
 8004750:	2800      	cmp	r0, #0
 8004752:	d158      	bne.n	8004806 <f_sync+0x10e>
 8004754:	6c29      	ldr	r1, [r5, #64]	@ 0x40
 8004756:	f04f 32ff 	mov.w	r2, #4294967295
 800475a:	4628      	mov	r0, r5
 800475c:	f7fe fb97 	bl	8002e8e <fill_last_frag>
 8004760:	4604      	mov	r4, r0
 8004762:	2800      	cmp	r0, #0
 8004764:	d14f      	bne.n	8004806 <f_sync+0x10e>
 8004766:	682b      	ldr	r3, [r5, #0]
 8004768:	9302      	str	r3, [sp, #8]
 800476a:	6a2b      	ldr	r3, [r5, #32]
 800476c:	9304      	str	r3, [sp, #16]
 800476e:	6a6b      	ldr	r3, [r5, #36]	@ 0x24
 8004770:	f88d 300f 	strb.w	r3, [sp, #15]
 8004774:	f023 03ff 	bic.w	r3, r3, #255	@ 0xff
 8004778:	e9cd 3006 	strd	r3, r0, [sp, #24]
 800477c:	6aa9      	ldr	r1, [r5, #40]	@ 0x28
 800477e:	9115      	str	r1, [sp, #84]	@ 0x54
 8004780:	a802      	add	r0, sp, #8
 8004782:	f7fe fabe 	bl	8002d02 <dir_sdi>
 8004786:	4604      	mov	r4, r0
 8004788:	2800      	cmp	r0, #0
 800478a:	d13c      	bne.n	8004806 <f_sync+0x10e>
 800478c:	a802      	add	r0, sp, #8
 800478e:	f7fe fdb9 	bl	8003304 <load_xdir>
 8004792:	4604      	mov	r4, r0
 8004794:	2800      	cmp	r0, #0
 8004796:	d136      	bne.n	8004806 <f_sync+0x10e>
 8004798:	6932      	ldr	r2, [r6, #16]
 800479a:	7913      	ldrb	r3, [r2, #4]
 800479c:	f043 0320 	orr.w	r3, r3, #32
 80047a0:	7113      	strb	r3, [r2, #4]
 80047a2:	79eb      	ldrb	r3, [r5, #7]
 80047a4:	6932      	ldr	r2, [r6, #16]
 80047a6:	f043 0301 	orr.w	r3, r3, #1
 80047aa:	f882 3021 	strb.w	r3, [r2, #33]	@ 0x21
 80047ae:	6930      	ldr	r0, [r6, #16]
 80047b0:	68a9      	ldr	r1, [r5, #8]
 80047b2:	3034      	adds	r0, #52	@ 0x34
 80047b4:	f7fe f82c 	bl	8002810 <st_dword>
 80047b8:	6930      	ldr	r0, [r6, #16]
 80047ba:	e9d5 2304 	ldrd	r2, r3, [r5, #16]
 80047be:	3038      	adds	r0, #56	@ 0x38
 80047c0:	f7fe f82e 	bl	8002820 <st_qword>
 80047c4:	6930      	ldr	r0, [r6, #16]
 80047c6:	e9d5 2304 	ldrd	r2, r3, [r5, #16]
 80047ca:	3028      	adds	r0, #40	@ 0x28
 80047cc:	f7fe f828 	bl	8002820 <st_qword>
 80047d0:	6930      	ldr	r0, [r6, #16]
 80047d2:	4641      	mov	r1, r8
 80047d4:	300c      	adds	r0, #12
 80047d6:	f7fe f81b 	bl	8002810 <st_dword>
 80047da:	6933      	ldr	r3, [r6, #16]
 80047dc:	755c      	strb	r4, [r3, #21]
 80047de:	6933      	ldr	r3, [r6, #16]
 80047e0:	a802      	add	r0, sp, #8
 80047e2:	741c      	strb	r4, [r3, #16]
 80047e4:	745c      	strb	r4, [r3, #17]
 80047e6:	749c      	strb	r4, [r3, #18]
 80047e8:	74dc      	strb	r4, [r3, #19]
 80047ea:	f7fe fe16 	bl	800341a <store_xdir>
 80047ee:	4604      	mov	r4, r0
 80047f0:	b948      	cbnz	r0, 8004806 <f_sync+0x10e>
 80047f2:	4630      	mov	r0, r6
 80047f4:	f7fe fbe9 	bl	8002fca <sync_fs>
 80047f8:	f895 3030 	ldrb.w	r3, [r5, #48]	@ 0x30
 80047fc:	f023 0340 	bic.w	r3, r3, #64	@ 0x40
 8004800:	4604      	mov	r4, r0
 8004802:	f885 3030 	strb.w	r3, [r5, #48]	@ 0x30
 8004806:	4620      	mov	r0, r4
 8004808:	b016      	add	sp, #88	@ 0x58
 800480a:	e8bd 81f0 	ldmia.w	sp!, {r4, r5, r6, r7, r8, pc}
 800480e:	6ca9      	ldr	r1, [r5, #72]	@ 0x48
 8004810:	4630      	mov	r0, r6
 8004812:	f7fe f98f 	bl	8002b34 <move_window>
 8004816:	4604      	mov	r4, r0
 8004818:	2800      	cmp	r0, #0
 800481a:	d1f4      	bne.n	8004806 <f_sync+0x10e>
 800481c:	6cef      	ldr	r7, [r5, #76]	@ 0x4c
 800481e:	7afb      	ldrb	r3, [r7, #11]
 8004820:	f043 0320 	orr.w	r3, r3, #32
 8004824:	72fb      	strb	r3, [r7, #11]
 8004826:	6828      	ldr	r0, [r5, #0]
 8004828:	68aa      	ldr	r2, [r5, #8]
 800482a:	4639      	mov	r1, r7
 800482c:	f7fe f976 	bl	8002b1c <st_clust>
 8004830:	6929      	ldr	r1, [r5, #16]
 8004832:	f107 001c 	add.w	r0, r7, #28
 8004836:	f7fd ffeb 	bl	8002810 <st_dword>
 800483a:	4641      	mov	r1, r8
 800483c:	f107 0016 	add.w	r0, r7, #22
 8004840:	f7fd ffe6 	bl	8002810 <st_dword>
 8004844:	2301      	movs	r3, #1
 8004846:	74bc      	strb	r4, [r7, #18]
 8004848:	74fc      	strb	r4, [r7, #19]
 800484a:	70f3      	strb	r3, [r6, #3]
 800484c:	e7d1      	b.n	80047f2 <f_sync+0xfa>
 800484e:	2401      	movs	r4, #1
 8004850:	e7d9      	b.n	8004806 <f_sync+0x10e>

08004852 <f_close>:
 8004852:	b513      	push	{r0, r1, r4, lr}
 8004854:	4604      	mov	r4, r0
 8004856:	f7ff ff4f 	bl	80046f8 <f_sync>
 800485a:	b948      	cbnz	r0, 8004870 <f_close+0x1e>
 800485c:	a901      	add	r1, sp, #4
 800485e:	4620      	mov	r0, r4
 8004860:	f7fe f8fb 	bl	8002a5a <validate>
 8004864:	b920      	cbnz	r0, 8004870 <f_close+0x1e>
 8004866:	6ae0      	ldr	r0, [r4, #44]	@ 0x2c
 8004868:	f7fe f86c 	bl	8002944 <dec_lock>
 800486c:	b900      	cbnz	r0, 8004870 <f_close+0x1e>
 800486e:	6020      	str	r0, [r4, #0]
 8004870:	b002      	add	sp, #8
 8004872:	bd10      	pop	{r4, pc}

08004874 <f_lseek>:
 8004874:	e92d 4ff0 	stmdb	sp!, {r4, r5, r6, r7, r8, r9, sl, fp, lr}
 8004878:	b085      	sub	sp, #20
 800487a:	a903      	add	r1, sp, #12
 800487c:	4604      	mov	r4, r0
 800487e:	4615      	mov	r5, r2
 8004880:	461e      	mov	r6, r3
 8004882:	f7fe f8ea 	bl	8002a5a <validate>
 8004886:	4607      	mov	r7, r0
 8004888:	2800      	cmp	r0, #0
 800488a:	d16e      	bne.n	800496a <f_lseek+0xf6>
 800488c:	f894 7031 	ldrb.w	r7, [r4, #49]	@ 0x31
 8004890:	2f00      	cmp	r7, #0
 8004892:	d16a      	bne.n	800496a <f_lseek+0xf6>
 8004894:	f8dd 800c 	ldr.w	r8, [sp, #12]
 8004898:	f898 3000 	ldrb.w	r3, [r8]
 800489c:	2b04      	cmp	r3, #4
 800489e:	d03b      	beq.n	8004918 <f_lseek+0xa4>
 80048a0:	6d23      	ldr	r3, [r4, #80]	@ 0x50
 80048a2:	2b00      	cmp	r3, #0
 80048a4:	d142      	bne.n	800492c <f_lseek+0xb8>
 80048a6:	f898 2000 	ldrb.w	r2, [r8]
 80048aa:	2a04      	cmp	r2, #4
 80048ac:	d007      	beq.n	80048be <f_lseek+0x4a>
 80048ae:	f04f 32ff 	mov.w	r2, #4294967295
 80048b2:	42aa      	cmp	r2, r5
 80048b4:	eb73 0106 	sbcs.w	r1, r3, r6
 80048b8:	bf3c      	itt	cc
 80048ba:	4615      	movcc	r5, r2
 80048bc:	461e      	movcc	r6, r3
 80048be:	e9d4 1204 	ldrd	r1, r2, [r4, #16]
 80048c2:	42a9      	cmp	r1, r5
 80048c4:	eb72 0306 	sbcs.w	r3, r2, r6
 80048c8:	d207      	bcs.n	80048da <f_lseek+0x66>
 80048ca:	f894 3030 	ldrb.w	r3, [r4, #48]	@ 0x30
 80048ce:	f003 0302 	and.w	r3, r3, #2
 80048d2:	2b00      	cmp	r3, #0
 80048d4:	bf04      	itt	eq
 80048d6:	460d      	moveq	r5, r1
 80048d8:	4616      	moveq	r6, r2
 80048da:	2100      	movs	r1, #0
 80048dc:	2000      	movs	r0, #0
 80048de:	e9d4 320e 	ldrd	r3, r2, [r4, #56]	@ 0x38
 80048e2:	e9c4 010e 	strd	r0, r1, [r4, #56]	@ 0x38
 80048e6:	ea55 0106 	orrs.w	r1, r5, r6
 80048ea:	f040 80ac 	bne.w	8004a46 <f_lseek+0x1d2>
 80048ee:	2500      	movs	r5, #0
 80048f0:	e9d4 320e 	ldrd	r3, r2, [r4, #56]	@ 0x38
 80048f4:	e9d4 0104 	ldrd	r0, r1, [r4, #16]
 80048f8:	4298      	cmp	r0, r3
 80048fa:	4191      	sbcs	r1, r2
 80048fc:	bf3c      	itt	cc
 80048fe:	e9c4 3204 	strdcc	r3, r2, [r4, #16]
 8004902:	f894 2030 	ldrbcc.w	r2, [r4, #48]	@ 0x30
 8004906:	f3c3 0308 	ubfx	r3, r3, #0, #9
 800490a:	bf3c      	itt	cc
 800490c:	f042 0240 	orrcc.w	r2, r2, #64	@ 0x40
 8004910:	f884 2030 	strbcc.w	r2, [r4, #48]	@ 0x30
 8004914:	b34b      	cbz	r3, 800496a <f_lseek+0xf6>
 8004916:	e074      	b.n	8004a02 <f_lseek+0x18e>
 8004918:	6c21      	ldr	r1, [r4, #64]	@ 0x40
 800491a:	f04f 32ff 	mov.w	r2, #4294967295
 800491e:	4620      	mov	r0, r4
 8004920:	f7fe fab5 	bl	8002e8e <fill_last_frag>
 8004924:	2800      	cmp	r0, #0
 8004926:	d0bb      	beq.n	80048a0 <f_lseek+0x2c>
 8004928:	4607      	mov	r7, r0
 800492a:	e01e      	b.n	800496a <f_lseek+0xf6>
 800492c:	f1b6 3fff 	cmp.w	r6, #4294967295
 8004930:	bf08      	it	eq
 8004932:	f1b5 3fff 	cmpeq.w	r5, #4294967295
 8004936:	d13a      	bne.n	80049ae <f_lseek+0x13a>
 8004938:	461d      	mov	r5, r3
 800493a:	f8d4 9008 	ldr.w	r9, [r4, #8]
 800493e:	f855 bb04 	ldr.w	fp, [r5], #4
 8004942:	2602      	movs	r6, #2
 8004944:	f1b9 0f00 	cmp.w	r9, #0
 8004948:	d029      	beq.n	800499e <f_lseek+0x12a>
 800494a:	4648      	mov	r0, r9
 800494c:	f04f 0a00 	mov.w	sl, #0
 8004950:	4601      	mov	r1, r0
 8004952:	9000      	str	r0, [sp, #0]
 8004954:	4620      	mov	r0, r4
 8004956:	f7fe f943 	bl	8002be0 <get_fat>
 800495a:	2801      	cmp	r0, #1
 800495c:	9900      	ldr	r1, [sp, #0]
 800495e:	f10a 0a01 	add.w	sl, sl, #1
 8004962:	d808      	bhi.n	8004976 <f_lseek+0x102>
 8004964:	2702      	movs	r7, #2
 8004966:	f884 7031 	strb.w	r7, [r4, #49]	@ 0x31
 800496a:	4638      	mov	r0, r7
 800496c:	b005      	add	sp, #20
 800496e:	e8bd 8ff0 	ldmia.w	sp!, {r4, r5, r6, r7, r8, r9, sl, fp, pc}
 8004972:	4681      	mov	r9, r0
 8004974:	e7e9      	b.n	800494a <f_lseek+0xd6>
 8004976:	1c43      	adds	r3, r0, #1
 8004978:	d101      	bne.n	800497e <f_lseek+0x10a>
 800497a:	2701      	movs	r7, #1
 800497c:	e7f3      	b.n	8004966 <f_lseek+0xf2>
 800497e:	3101      	adds	r1, #1
 8004980:	4281      	cmp	r1, r0
 8004982:	d0e5      	beq.n	8004950 <f_lseek+0xdc>
 8004984:	3602      	adds	r6, #2
 8004986:	45b3      	cmp	fp, r6
 8004988:	bf21      	itttt	cs
 800498a:	462b      	movcs	r3, r5
 800498c:	f843 ab08 	strcs.w	sl, [r3], #8
 8004990:	f8c5 9004 	strcs.w	r9, [r5, #4]
 8004994:	461d      	movcs	r5, r3
 8004996:	f8d8 301c 	ldr.w	r3, [r8, #28]
 800499a:	4283      	cmp	r3, r0
 800499c:	d8e9      	bhi.n	8004972 <f_lseek+0xfe>
 800499e:	6d23      	ldr	r3, [r4, #80]	@ 0x50
 80049a0:	455e      	cmp	r6, fp
 80049a2:	601e      	str	r6, [r3, #0]
 80049a4:	f200 80e1 	bhi.w	8004b6a <f_lseek+0x2f6>
 80049a8:	2300      	movs	r3, #0
 80049aa:	602b      	str	r3, [r5, #0]
 80049ac:	e7dd      	b.n	800496a <f_lseek+0xf6>
 80049ae:	e9d4 9304 	ldrd	r9, r3, [r4, #16]
 80049b2:	454d      	cmp	r5, r9
 80049b4:	eb76 0203 	sbcs.w	r2, r6, r3
 80049b8:	bf3c      	itt	cc
 80049ba:	46a9      	movcc	r9, r5
 80049bc:	4633      	movcc	r3, r6
 80049be:	ea59 0203 	orrs.w	r2, r9, r3
 80049c2:	e9c4 930e 	strd	r9, r3, [r4, #56]	@ 0x38
 80049c6:	d0d0      	beq.n	800496a <f_lseek+0xf6>
 80049c8:	f119 3aff 	adds.w	sl, r9, #4294967295
 80049cc:	f143 36ff 	adc.w	r6, r3, #4294967295
 80049d0:	4652      	mov	r2, sl
 80049d2:	4633      	mov	r3, r6
 80049d4:	4620      	mov	r0, r4
 80049d6:	f7fd ffec 	bl	80029b2 <clmt_clust>
 80049da:	4601      	mov	r1, r0
 80049dc:	6420      	str	r0, [r4, #64]	@ 0x40
 80049de:	4640      	mov	r0, r8
 80049e0:	f7fd ffdc 	bl	800299c <clust2sect>
 80049e4:	2800      	cmp	r0, #0
 80049e6:	d0bd      	beq.n	8004964 <f_lseek+0xf0>
 80049e8:	f3c9 0108 	ubfx	r1, r9, #0, #9
 80049ec:	f8b8 500a 	ldrh.w	r5, [r8, #10]
 80049f0:	2900      	cmp	r1, #0
 80049f2:	d0ba      	beq.n	800496a <f_lseek+0xf6>
 80049f4:	ea4f 225a 	mov.w	r2, sl, lsr #9
 80049f8:	ea42 52c6 	orr.w	r2, r2, r6, lsl #23
 80049fc:	3d01      	subs	r5, #1
 80049fe:	4015      	ands	r5, r2
 8004a00:	4405      	add	r5, r0
 8004a02:	6c62      	ldr	r2, [r4, #68]	@ 0x44
 8004a04:	42aa      	cmp	r2, r5
 8004a06:	d0b0      	beq.n	800496a <f_lseek+0xf6>
 8004a08:	f994 3030 	ldrsb.w	r3, [r4, #48]	@ 0x30
 8004a0c:	f898 0001 	ldrb.w	r0, [r8, #1]
 8004a10:	2b00      	cmp	r3, #0
 8004a12:	f104 0654 	add.w	r6, r4, #84	@ 0x54
 8004a16:	da0b      	bge.n	8004a30 <f_lseek+0x1bc>
 8004a18:	2301      	movs	r3, #1
 8004a1a:	4631      	mov	r1, r6
 8004a1c:	f7fd fed6 	bl	80027cc <disk_write>
 8004a20:	2800      	cmp	r0, #0
 8004a22:	d1aa      	bne.n	800497a <f_lseek+0x106>
 8004a24:	f894 3030 	ldrb.w	r3, [r4, #48]	@ 0x30
 8004a28:	f003 037f 	and.w	r3, r3, #127	@ 0x7f
 8004a2c:	f884 3030 	strb.w	r3, [r4, #48]	@ 0x30
 8004a30:	f898 0001 	ldrb.w	r0, [r8, #1]
 8004a34:	2301      	movs	r3, #1
 8004a36:	462a      	mov	r2, r5
 8004a38:	4631      	mov	r1, r6
 8004a3a:	f7fd feb9 	bl	80027b0 <disk_read>
 8004a3e:	2800      	cmp	r0, #0
 8004a40:	d19b      	bne.n	800497a <f_lseek+0x106>
 8004a42:	6465      	str	r5, [r4, #68]	@ 0x44
 8004a44:	e791      	b.n	800496a <f_lseek+0xf6>
 8004a46:	f8b8 900a 	ldrh.w	r9, [r8, #10]
 8004a4a:	ea53 0102 	orrs.w	r1, r3, r2
 8004a4e:	ea4f 2949 	mov.w	r9, r9, lsl #9
 8004a52:	d026      	beq.n	8004aa2 <f_lseek+0x22e>
 8004a54:	f113 3bff 	adds.w	fp, r3, #4294967295
 8004a58:	f142 3aff 	adc.w	sl, r2, #4294967295
 8004a5c:	1e68      	subs	r0, r5, #1
 8004a5e:	f166 0100 	sbc.w	r1, r6, #0
 8004a62:	464a      	mov	r2, r9
 8004a64:	2300      	movs	r3, #0
 8004a66:	f7fb fbaf 	bl	80001c8 <__aeabi_uldivmod>
 8004a6a:	2300      	movs	r3, #0
 8004a6c:	e9cd 0100 	strd	r0, r1, [sp]
 8004a70:	464a      	mov	r2, r9
 8004a72:	4658      	mov	r0, fp
 8004a74:	4651      	mov	r1, sl
 8004a76:	f7fb fba7 	bl	80001c8 <__aeabi_uldivmod>
 8004a7a:	9b00      	ldr	r3, [sp, #0]
 8004a7c:	4283      	cmp	r3, r0
 8004a7e:	9b01      	ldr	r3, [sp, #4]
 8004a80:	418b      	sbcs	r3, r1
 8004a82:	d30e      	bcc.n	8004aa2 <f_lseek+0x22e>
 8004a84:	f1c9 0300 	rsb	r3, r9, #0
 8004a88:	ea03 030b 	and.w	r3, r3, fp
 8004a8c:	e9c4 3a0e 	strd	r3, sl, [r4, #56]	@ 0x38
 8004a90:	6c21      	ldr	r1, [r4, #64]	@ 0x40
 8004a92:	1aeb      	subs	r3, r5, r3
 8004a94:	461d      	mov	r5, r3
 8004a96:	eb66 060a 	sbc.w	r6, r6, sl
 8004a9a:	2900      	cmp	r1, #0
 8004a9c:	f43f af27 	beq.w	80048ee <f_lseek+0x7a>
 8004aa0:	e002      	b.n	8004aa8 <f_lseek+0x234>
 8004aa2:	68a1      	ldr	r1, [r4, #8]
 8004aa4:	b1f9      	cbz	r1, 8004ae6 <f_lseek+0x272>
 8004aa6:	6421      	str	r1, [r4, #64]	@ 0x40
 8004aa8:	f04f 0a00 	mov.w	sl, #0
 8004aac:	45a9      	cmp	r9, r5
 8004aae:	eb7a 0006 	sbcs.w	r0, sl, r6
 8004ab2:	e9d4 320e 	ldrd	r3, r2, [r4, #56]	@ 0x38
 8004ab6:	d323      	bcc.n	8004b00 <f_lseek+0x28c>
 8004ab8:	e9d4 320e 	ldrd	r3, r2, [r4, #56]	@ 0x38
 8004abc:	195b      	adds	r3, r3, r5
 8004abe:	eb46 0202 	adc.w	r2, r6, r2
 8004ac2:	e9c4 320e 	strd	r3, r2, [r4, #56]	@ 0x38
 8004ac6:	f3c5 0308 	ubfx	r3, r5, #0, #9
 8004aca:	2b00      	cmp	r3, #0
 8004acc:	f43f af0f 	beq.w	80048ee <f_lseek+0x7a>
 8004ad0:	4640      	mov	r0, r8
 8004ad2:	f7fd ff63 	bl	800299c <clust2sect>
 8004ad6:	2800      	cmp	r0, #0
 8004ad8:	f43f af44 	beq.w	8004964 <f_lseek+0xf0>
 8004adc:	0a6d      	lsrs	r5, r5, #9
 8004ade:	ea45 55c6 	orr.w	r5, r5, r6, lsl #23
 8004ae2:	4405      	add	r5, r0
 8004ae4:	e704      	b.n	80048f0 <f_lseek+0x7c>
 8004ae6:	4620      	mov	r0, r4
 8004ae8:	f7fe faba 	bl	8003060 <create_chain>
 8004aec:	2801      	cmp	r0, #1
 8004aee:	4601      	mov	r1, r0
 8004af0:	f43f af38 	beq.w	8004964 <f_lseek+0xf0>
 8004af4:	1c42      	adds	r2, r0, #1
 8004af6:	f43f af40 	beq.w	800497a <f_lseek+0x106>
 8004afa:	60a0      	str	r0, [r4, #8]
 8004afc:	6420      	str	r0, [r4, #64]	@ 0x40
 8004afe:	e7cc      	b.n	8004a9a <f_lseek+0x226>
 8004b00:	ebb5 0509 	subs.w	r5, r5, r9
 8004b04:	f894 e030 	ldrb.w	lr, [r4, #48]	@ 0x30
 8004b08:	f166 0600 	sbc.w	r6, r6, #0
 8004b0c:	eb13 0309 	adds.w	r3, r3, r9
 8004b10:	f142 0000 	adc.w	r0, r2, #0
 8004b14:	f01e 0f02 	tst.w	lr, #2
 8004b18:	e9c4 300e 	strd	r3, r0, [r4, #56]	@ 0x38
 8004b1c:	d014      	beq.n	8004b48 <f_lseek+0x2d4>
 8004b1e:	6962      	ldr	r2, [r4, #20]
 8004b20:	9200      	str	r2, [sp, #0]
 8004b22:	6922      	ldr	r2, [r4, #16]
 8004b24:	429a      	cmp	r2, r3
 8004b26:	9a00      	ldr	r2, [sp, #0]
 8004b28:	4182      	sbcs	r2, r0
 8004b2a:	bf3e      	ittt	cc
 8004b2c:	f04e 0e40 	orrcc.w	lr, lr, #64	@ 0x40
 8004b30:	e9c4 3004 	strdcc	r3, r0, [r4, #16]
 8004b34:	f884 e030 	strbcc.w	lr, [r4, #48]	@ 0x30
 8004b38:	4620      	mov	r0, r4
 8004b3a:	f7fe fa91 	bl	8003060 <create_chain>
 8004b3e:	4601      	mov	r1, r0
 8004b40:	b930      	cbnz	r0, 8004b50 <f_lseek+0x2dc>
 8004b42:	4605      	mov	r5, r0
 8004b44:	4606      	mov	r6, r0
 8004b46:	e7b7      	b.n	8004ab8 <f_lseek+0x244>
 8004b48:	4620      	mov	r0, r4
 8004b4a:	f7fe f849 	bl	8002be0 <get_fat>
 8004b4e:	4601      	mov	r1, r0
 8004b50:	1c4b      	adds	r3, r1, #1
 8004b52:	f43f af12 	beq.w	800497a <f_lseek+0x106>
 8004b56:	2901      	cmp	r1, #1
 8004b58:	f67f af04 	bls.w	8004964 <f_lseek+0xf0>
 8004b5c:	f8d8 301c 	ldr.w	r3, [r8, #28]
 8004b60:	428b      	cmp	r3, r1
 8004b62:	f67f aeff 	bls.w	8004964 <f_lseek+0xf0>
 8004b66:	6421      	str	r1, [r4, #64]	@ 0x40
 8004b68:	e7a0      	b.n	8004aac <f_lseek+0x238>
 8004b6a:	2711      	movs	r7, #17
 8004b6c:	e6fd      	b.n	800496a <f_lseek+0xf6>

08004b6e <f_unlink>:
 8004b6e:	b5f0      	push	{r4, r5, r6, r7, lr}
 8004b70:	b0b9      	sub	sp, #228	@ 0xe4
 8004b72:	2202      	movs	r2, #2
 8004b74:	9001      	str	r0, [sp, #4]
 8004b76:	a903      	add	r1, sp, #12
 8004b78:	a801      	add	r0, sp, #4
 8004b7a:	f7ff f979 	bl	8003e70 <find_volume>
 8004b7e:	9c03      	ldr	r4, [sp, #12]
 8004b80:	9410      	str	r4, [sp, #64]	@ 0x40
 8004b82:	b990      	cbnz	r0, 8004baa <f_unlink+0x3c>
 8004b84:	9901      	ldr	r1, [sp, #4]
 8004b86:	a810      	add	r0, sp, #64	@ 0x40
 8004b88:	f7fe ffca 	bl	8003b20 <follow_path>
 8004b8c:	b968      	cbnz	r0, 8004baa <f_unlink+0x3c>
 8004b8e:	2102      	movs	r1, #2
 8004b90:	a810      	add	r0, sp, #64	@ 0x40
 8004b92:	f7fd fe5b 	bl	800284c <chk_lock>
 8004b96:	b940      	cbnz	r0, 8004baa <f_unlink+0x3c>
 8004b98:	f99d 308b 	ldrsb.w	r3, [sp, #139]	@ 0x8b
 8004b9c:	2b00      	cmp	r3, #0
 8004b9e:	db54      	blt.n	8004c4a <f_unlink+0xdc>
 8004ba0:	f89d 7046 	ldrb.w	r7, [sp, #70]	@ 0x46
 8004ba4:	07fa      	lsls	r2, r7, #31
 8004ba6:	d502      	bpl.n	8004bae <f_unlink+0x40>
 8004ba8:	2007      	movs	r0, #7
 8004baa:	b039      	add	sp, #228	@ 0xe4
 8004bac:	bdf0      	pop	{r4, r5, r6, r7, pc}
 8004bae:	7826      	ldrb	r6, [r4, #0]
 8004bb0:	9404      	str	r4, [sp, #16]
 8004bb2:	2e04      	cmp	r6, #4
 8004bb4:	d11e      	bne.n	8004bf4 <f_unlink+0x86>
 8004bb6:	6922      	ldr	r2, [r4, #16]
 8004bb8:	f102 0034 	add.w	r0, r2, #52	@ 0x34
 8004bbc:	f7fd fe22 	bl	8002804 <ld_dword>
 8004bc0:	9006      	str	r0, [sp, #24]
 8004bc2:	4605      	mov	r5, r0
 8004bc4:	f102 0038 	add.w	r0, r2, #56	@ 0x38
 8004bc8:	f7fd fe1e 	bl	8002808 <ld_qword>
 8004bcc:	f892 3021 	ldrb.w	r3, [r2, #33]	@ 0x21
 8004bd0:	e9cd 0108 	strd	r0, r1, [sp, #32]
 8004bd4:	f003 0302 	and.w	r3, r3, #2
 8004bd8:	f88d 3017 	strb.w	r3, [sp, #23]
 8004bdc:	06fb      	lsls	r3, r7, #27
 8004bde:	d40f      	bmi.n	8004c00 <f_unlink+0x92>
 8004be0:	a810      	add	r0, sp, #64	@ 0x40
 8004be2:	f7fe fc4d 	bl	8003480 <dir_remove>
 8004be6:	2800      	cmp	r0, #0
 8004be8:	d1df      	bne.n	8004baa <f_unlink+0x3c>
 8004bea:	bb35      	cbnz	r5, 8004c3a <f_unlink+0xcc>
 8004bec:	4620      	mov	r0, r4
 8004bee:	f7fe f9ec 	bl	8002fca <sync_fs>
 8004bf2:	e7da      	b.n	8004baa <f_unlink+0x3c>
 8004bf4:	991f      	ldr	r1, [sp, #124]	@ 0x7c
 8004bf6:	4630      	mov	r0, r6
 8004bf8:	f7fe ff8a 	bl	8003b10 <ld_clust.isra.0>
 8004bfc:	4605      	mov	r5, r0
 8004bfe:	e7ed      	b.n	8004bdc <f_unlink+0x6e>
 8004c00:	2e04      	cmp	r6, #4
 8004c02:	bf08      	it	eq
 8004c04:	e9dd 2308 	ldrdeq	r2, r3, [sp, #32]
 8004c08:	f04f 0100 	mov.w	r1, #0
 8004c0c:	bf08      	it	eq
 8004c0e:	e9cd 2328 	strdeq	r2, r3, [sp, #160]	@ 0xa0
 8004c12:	a824      	add	r0, sp, #144	@ 0x90
 8004c14:	bf04      	itt	eq
 8004c16:	f89d 3017 	ldrbeq.w	r3, [sp, #23]
 8004c1a:	f88d 3097 	strbeq.w	r3, [sp, #151]	@ 0x97
 8004c1e:	9424      	str	r4, [sp, #144]	@ 0x90
 8004c20:	9526      	str	r5, [sp, #152]	@ 0x98
 8004c22:	f7fe f86e 	bl	8002d02 <dir_sdi>
 8004c26:	2800      	cmp	r0, #0
 8004c28:	d1bf      	bne.n	8004baa <f_unlink+0x3c>
 8004c2a:	a824      	add	r0, sp, #144	@ 0x90
 8004c2c:	f7fe fc52 	bl	80034d4 <dir_read.constprop.0>
 8004c30:	2800      	cmp	r0, #0
 8004c32:	d0b9      	beq.n	8004ba8 <f_unlink+0x3a>
 8004c34:	2804      	cmp	r0, #4
 8004c36:	d1b8      	bne.n	8004baa <f_unlink+0x3c>
 8004c38:	e7d2      	b.n	8004be0 <f_unlink+0x72>
 8004c3a:	4602      	mov	r2, r0
 8004c3c:	4629      	mov	r1, r5
 8004c3e:	a804      	add	r0, sp, #16
 8004c40:	f7fe f955 	bl	8002eee <remove_chain>
 8004c44:	2800      	cmp	r0, #0
 8004c46:	d1b0      	bne.n	8004baa <f_unlink+0x3c>
 8004c48:	e7d0      	b.n	8004bec <f_unlink+0x7e>
 8004c4a:	2006      	movs	r0, #6
 8004c4c:	e7ad      	b.n	8004baa <f_unlink+0x3c>

08004c4e <f_rename>:
 8004c4e:	b5f0      	push	{r4, r5, r6, r7, lr}
 8004c50:	b0bd      	sub	sp, #244	@ 0xf4
 8004c52:	e9cd 1000 	strd	r1, r0, [sp]
 8004c56:	4668      	mov	r0, sp
 8004c58:	f7fd fee7 	bl	8002a2a <get_ldnumber>
 8004c5c:	2202      	movs	r2, #2
 8004c5e:	a903      	add	r1, sp, #12
 8004c60:	a801      	add	r0, sp, #4
 8004c62:	f7ff f905 	bl	8003e70 <find_volume>
 8004c66:	bb58      	cbnz	r0, 8004cc0 <f_rename+0x72>
 8004c68:	9c03      	ldr	r4, [sp, #12]
 8004c6a:	9901      	ldr	r1, [sp, #4]
 8004c6c:	9414      	str	r4, [sp, #80]	@ 0x50
 8004c6e:	a814      	add	r0, sp, #80	@ 0x50
 8004c70:	f7fe ff56 	bl	8003b20 <follow_path>
 8004c74:	bb20      	cbnz	r0, 8004cc0 <f_rename+0x72>
 8004c76:	f89d 309b 	ldrb.w	r3, [sp, #155]	@ 0x9b
 8004c7a:	f013 0fa0 	tst.w	r3, #160	@ 0xa0
 8004c7e:	f040 80a3 	bne.w	8004dc8 <f_rename+0x17a>
 8004c82:	2102      	movs	r1, #2
 8004c84:	a814      	add	r0, sp, #80	@ 0x50
 8004c86:	f7fd fde1 	bl	800284c <chk_lock>
 8004c8a:	b9c8      	cbnz	r0, 8004cc0 <f_rename+0x72>
 8004c8c:	7823      	ldrb	r3, [r4, #0]
 8004c8e:	9d00      	ldr	r5, [sp, #0]
 8004c90:	2b04      	cmp	r3, #4
 8004c92:	d145      	bne.n	8004d20 <f_rename+0xd2>
 8004c94:	6921      	ldr	r1, [r4, #16]
 8004c96:	2240      	movs	r2, #64	@ 0x40
 8004c98:	a804      	add	r0, sp, #16
 8004c9a:	f7fd ff36 	bl	8002b0a <mem_cpy.part.0>
 8004c9e:	2250      	movs	r2, #80	@ 0x50
 8004ca0:	eb0d 0102 	add.w	r1, sp, r2
 8004ca4:	a828      	add	r0, sp, #160	@ 0xa0
 8004ca6:	f7fd ff30 	bl	8002b0a <mem_cpy.part.0>
 8004caa:	4629      	mov	r1, r5
 8004cac:	a828      	add	r0, sp, #160	@ 0xa0
 8004cae:	f7fe ff37 	bl	8003b20 <follow_path>
 8004cb2:	2800      	cmp	r0, #0
 8004cb4:	d131      	bne.n	8004d1a <f_rename+0xcc>
 8004cb6:	9a2a      	ldr	r2, [sp, #168]	@ 0xa8
 8004cb8:	9b16      	ldr	r3, [sp, #88]	@ 0x58
 8004cba:	429a      	cmp	r2, r3
 8004cbc:	d002      	beq.n	8004cc4 <f_rename+0x76>
 8004cbe:	2008      	movs	r0, #8
 8004cc0:	b03d      	add	sp, #244	@ 0xf4
 8004cc2:	bdf0      	pop	{r4, r5, r6, r7, pc}
 8004cc4:	9a34      	ldr	r2, [sp, #208]	@ 0xd0
 8004cc6:	9b20      	ldr	r3, [sp, #128]	@ 0x80
 8004cc8:	429a      	cmp	r2, r3
 8004cca:	d1f8      	bne.n	8004cbe <f_rename+0x70>
 8004ccc:	a828      	add	r0, sp, #160	@ 0xa0
 8004cce:	f7fe fd65 	bl	800379c <dir_register>
 8004cd2:	2800      	cmp	r0, #0
 8004cd4:	d1f4      	bne.n	8004cc0 <f_rename+0x72>
 8004cd6:	6920      	ldr	r0, [r4, #16]
 8004cd8:	2240      	movs	r2, #64	@ 0x40
 8004cda:	a904      	add	r1, sp, #16
 8004cdc:	8c85      	ldrh	r5, [r0, #36]	@ 0x24
 8004cde:	7847      	ldrb	r7, [r0, #1]
 8004ce0:	f890 6023 	ldrb.w	r6, [r0, #35]	@ 0x23
 8004ce4:	f7fd ff11 	bl	8002b0a <mem_cpy.part.0>
 8004ce8:	6923      	ldr	r3, [r4, #16]
 8004cea:	705f      	strb	r7, [r3, #1]
 8004cec:	6923      	ldr	r3, [r4, #16]
 8004cee:	f883 6023 	strb.w	r6, [r3, #35]	@ 0x23
 8004cf2:	6923      	ldr	r3, [r4, #16]
 8004cf4:	f883 5024 	strb.w	r5, [r3, #36]	@ 0x24
 8004cf8:	0a2d      	lsrs	r5, r5, #8
 8004cfa:	f883 5025 	strb.w	r5, [r3, #37]	@ 0x25
 8004cfe:	a828      	add	r0, sp, #160	@ 0xa0
 8004d00:	f7fe fb8b 	bl	800341a <store_xdir>
 8004d04:	2800      	cmp	r0, #0
 8004d06:	d1db      	bne.n	8004cc0 <f_rename+0x72>
 8004d08:	a814      	add	r0, sp, #80	@ 0x50
 8004d0a:	f7fe fbb9 	bl	8003480 <dir_remove>
 8004d0e:	2800      	cmp	r0, #0
 8004d10:	d1d6      	bne.n	8004cc0 <f_rename+0x72>
 8004d12:	4620      	mov	r0, r4
 8004d14:	f7fe f959 	bl	8002fca <sync_fs>
 8004d18:	e7d2      	b.n	8004cc0 <f_rename+0x72>
 8004d1a:	2804      	cmp	r0, #4
 8004d1c:	d1d0      	bne.n	8004cc0 <f_rename+0x72>
 8004d1e:	e7d5      	b.n	8004ccc <f_rename+0x7e>
 8004d20:	9923      	ldr	r1, [sp, #140]	@ 0x8c
 8004d22:	2215      	movs	r2, #21
 8004d24:	310b      	adds	r1, #11
 8004d26:	a804      	add	r0, sp, #16
 8004d28:	f7fd feef 	bl	8002b0a <mem_cpy.part.0>
 8004d2c:	2250      	movs	r2, #80	@ 0x50
 8004d2e:	eb0d 0102 	add.w	r1, sp, r2
 8004d32:	a828      	add	r0, sp, #160	@ 0xa0
 8004d34:	f7fd fee9 	bl	8002b0a <mem_cpy.part.0>
 8004d38:	4629      	mov	r1, r5
 8004d3a:	a828      	add	r0, sp, #160	@ 0xa0
 8004d3c:	f7fe fef0 	bl	8003b20 <follow_path>
 8004d40:	2800      	cmp	r0, #0
 8004d42:	d13d      	bne.n	8004dc0 <f_rename+0x172>
 8004d44:	9a2a      	ldr	r2, [sp, #168]	@ 0xa8
 8004d46:	9b16      	ldr	r3, [sp, #88]	@ 0x58
 8004d48:	429a      	cmp	r2, r3
 8004d4a:	d1b8      	bne.n	8004cbe <f_rename+0x70>
 8004d4c:	9a34      	ldr	r2, [sp, #208]	@ 0xd0
 8004d4e:	9b20      	ldr	r3, [sp, #128]	@ 0x80
 8004d50:	429a      	cmp	r2, r3
 8004d52:	d1b4      	bne.n	8004cbe <f_rename+0x70>
 8004d54:	a828      	add	r0, sp, #160	@ 0xa0
 8004d56:	f7fe fd21 	bl	800379c <dir_register>
 8004d5a:	2800      	cmp	r0, #0
 8004d5c:	d1b0      	bne.n	8004cc0 <f_rename+0x72>
 8004d5e:	9d37      	ldr	r5, [sp, #220]	@ 0xdc
 8004d60:	2213      	movs	r2, #19
 8004d62:	f10d 0112 	add.w	r1, sp, #18
 8004d66:	f105 000d 	add.w	r0, r5, #13
 8004d6a:	f7fd fece 	bl	8002b0a <mem_cpy.part.0>
 8004d6e:	f89d 3010 	ldrb.w	r3, [sp, #16]
 8004d72:	2601      	movs	r6, #1
 8004d74:	f043 0320 	orr.w	r3, r3, #32
 8004d78:	72eb      	strb	r3, [r5, #11]
 8004d7a:	70e6      	strb	r6, [r4, #3]
 8004d7c:	7aeb      	ldrb	r3, [r5, #11]
 8004d7e:	06db      	lsls	r3, r3, #27
 8004d80:	d5c2      	bpl.n	8004d08 <f_rename+0xba>
 8004d82:	9f2a      	ldr	r7, [sp, #168]	@ 0xa8
 8004d84:	9b16      	ldr	r3, [sp, #88]	@ 0x58
 8004d86:	42bb      	cmp	r3, r7
 8004d88:	d0be      	beq.n	8004d08 <f_rename+0xba>
 8004d8a:	4629      	mov	r1, r5
 8004d8c:	7820      	ldrb	r0, [r4, #0]
 8004d8e:	f7fe febf 	bl	8003b10 <ld_clust.isra.0>
 8004d92:	4601      	mov	r1, r0
 8004d94:	4620      	mov	r0, r4
 8004d96:	f7fd fe01 	bl	800299c <clust2sect>
 8004d9a:	4601      	mov	r1, r0
 8004d9c:	b1b0      	cbz	r0, 8004dcc <f_rename+0x17e>
 8004d9e:	4620      	mov	r0, r4
 8004da0:	f7fd fec8 	bl	8002b34 <move_window>
 8004da4:	2800      	cmp	r0, #0
 8004da6:	d18b      	bne.n	8004cc0 <f_rename+0x72>
 8004da8:	f894 3059 	ldrb.w	r3, [r4, #89]	@ 0x59
 8004dac:	2b2e      	cmp	r3, #46	@ 0x2e
 8004dae:	d1ab      	bne.n	8004d08 <f_rename+0xba>
 8004db0:	463a      	mov	r2, r7
 8004db2:	f104 0158 	add.w	r1, r4, #88	@ 0x58
 8004db6:	4620      	mov	r0, r4
 8004db8:	f7fd feb0 	bl	8002b1c <st_clust>
 8004dbc:	70e6      	strb	r6, [r4, #3]
 8004dbe:	e7a3      	b.n	8004d08 <f_rename+0xba>
 8004dc0:	2804      	cmp	r0, #4
 8004dc2:	f47f af7d 	bne.w	8004cc0 <f_rename+0x72>
 8004dc6:	e7c5      	b.n	8004d54 <f_rename+0x106>
 8004dc8:	2006      	movs	r0, #6
 8004dca:	e779      	b.n	8004cc0 <f_rename+0x72>
 8004dcc:	2002      	movs	r0, #2
 8004dce:	e777      	b.n	8004cc0 <f_rename+0x72>

08004dd0 <FATFS_LinkDriverEx>:
 8004dd0:	b530      	push	{r4, r5, lr}
 8004dd2:	4b0e      	ldr	r3, [pc, #56]	@ (8004e0c <FATFS_LinkDriverEx+0x3c>)
 8004dd4:	7a5c      	ldrb	r4, [r3, #9]
 8004dd6:	4605      	mov	r5, r0
 8004dd8:	f004 00ff 	and.w	r0, r4, #255	@ 0xff
 8004ddc:	b9a4      	cbnz	r4, 8004e08 <FATFS_LinkDriverEx+0x38>
 8004dde:	7a5c      	ldrb	r4, [r3, #9]
 8004de0:	5518      	strb	r0, [r3, r4]
 8004de2:	7a5c      	ldrb	r4, [r3, #9]
 8004de4:	eb03 0484 	add.w	r4, r3, r4, lsl #2
 8004de8:	6065      	str	r5, [r4, #4]
 8004dea:	7a5c      	ldrb	r4, [r3, #9]
 8004dec:	441c      	add	r4, r3
 8004dee:	7222      	strb	r2, [r4, #8]
 8004df0:	7a5a      	ldrb	r2, [r3, #9]
 8004df2:	1c54      	adds	r4, r2, #1
 8004df4:	b2e4      	uxtb	r4, r4
 8004df6:	725c      	strb	r4, [r3, #9]
 8004df8:	233a      	movs	r3, #58	@ 0x3a
 8004dfa:	3230      	adds	r2, #48	@ 0x30
 8004dfc:	704b      	strb	r3, [r1, #1]
 8004dfe:	232f      	movs	r3, #47	@ 0x2f
 8004e00:	700a      	strb	r2, [r1, #0]
 8004e02:	708b      	strb	r3, [r1, #2]
 8004e04:	70c8      	strb	r0, [r1, #3]
 8004e06:	bd30      	pop	{r4, r5, pc}
 8004e08:	2001      	movs	r0, #1
 8004e0a:	e7fc      	b.n	8004e06 <FATFS_LinkDriverEx+0x36>
 8004e0c:	20001a54 	.word	0x20001a54

08004e10 <FATFS_LinkDriver>:
 8004e10:	2200      	movs	r2, #0
 8004e12:	f7ff bfdd 	b.w	8004dd0 <FATFS_LinkDriverEx>
	...

08004e18 <ff_convert>:
 8004e18:	287f      	cmp	r0, #127	@ 0x7f
 8004e1a:	d915      	bls.n	8004e48 <ff_convert+0x30>
 8004e1c:	b131      	cbz	r1, 8004e2c <ff_convert+0x14>
 8004e1e:	28ff      	cmp	r0, #255	@ 0xff
 8004e20:	d811      	bhi.n	8004e46 <ff_convert+0x2e>
 8004e22:	4b0a      	ldr	r3, [pc, #40]	@ (8004e4c <ff_convert+0x34>)
 8004e24:	3880      	subs	r0, #128	@ 0x80
 8004e26:	f833 0010 	ldrh.w	r0, [r3, r0, lsl #1]
 8004e2a:	4770      	bx	lr
 8004e2c:	4b07      	ldr	r3, [pc, #28]	@ (8004e4c <ff_convert+0x34>)
 8004e2e:	f833 2b02 	ldrh.w	r2, [r3], #2
 8004e32:	4282      	cmp	r2, r0
 8004e34:	d005      	beq.n	8004e42 <ff_convert+0x2a>
 8004e36:	3101      	adds	r1, #1
 8004e38:	2980      	cmp	r1, #128	@ 0x80
 8004e3a:	d1f8      	bne.n	8004e2e <ff_convert+0x16>
 8004e3c:	3180      	adds	r1, #128	@ 0x80
 8004e3e:	b2c8      	uxtb	r0, r1
 8004e40:	4770      	bx	lr
 8004e42:	b289      	uxth	r1, r1
 8004e44:	e7fa      	b.n	8004e3c <ff_convert+0x24>
 8004e46:	2000      	movs	r0, #0
 8004e48:	4770      	bx	lr
 8004e4a:	bf00      	nop
 8004e4c:	08005636 	.word	0x08005636

08004e50 <ff_wtoupper>:
 8004e50:	b570      	push	{r4, r5, r6, lr}
 8004e52:	4b1e      	ldr	r3, [pc, #120]	@ (8004ecc <ff_wtoupper+0x7c>)
 8004e54:	4a1e      	ldr	r2, [pc, #120]	@ (8004ed0 <ff_wtoupper+0x80>)
 8004e56:	f5b0 5f80 	cmp.w	r0, #4096	@ 0x1000
 8004e5a:	bf38      	it	cc
 8004e5c:	4613      	movcc	r3, r2
 8004e5e:	1d19      	adds	r1, r3, #4
 8004e60:	f831 3c04 	ldrh.w	r3, [r1, #-4]
 8004e64:	460a      	mov	r2, r1
 8004e66:	b1ab      	cbz	r3, 8004e94 <ff_wtoupper+0x44>
 8004e68:	4298      	cmp	r0, r3
 8004e6a:	d313      	bcc.n	8004e94 <ff_wtoupper+0x44>
 8004e6c:	f831 4c02 	ldrh.w	r4, [r1, #-2]
 8004e70:	0a25      	lsrs	r5, r4, #8
 8004e72:	b2e6      	uxtb	r6, r4
 8004e74:	fa53 f484 	uxtab	r4, r3, r4
 8004e78:	42a0      	cmp	r0, r4
 8004e7a:	da21      	bge.n	8004ec0 <ff_wtoupper+0x70>
 8004e7c:	2d08      	cmp	r5, #8
 8004e7e:	d809      	bhi.n	8004e94 <ff_wtoupper+0x44>
 8004e80:	e8df f005 	tbb	[pc, r5]
 8004e84:	110f0905 	.word	0x110f0905
 8004e88:	19171513 	.word	0x19171513
 8004e8c:	1b          	.byte	0x1b
 8004e8d:	00          	.byte	0x00
 8004e8e:	1ac0      	subs	r0, r0, r3
 8004e90:	f831 0010 	ldrh.w	r0, [r1, r0, lsl #1]
 8004e94:	bd70      	pop	{r4, r5, r6, pc}
 8004e96:	1ac3      	subs	r3, r0, r3
 8004e98:	f003 0301 	and.w	r3, r3, #1
 8004e9c:	1ac0      	subs	r0, r0, r3
 8004e9e:	b280      	uxth	r0, r0
 8004ea0:	e7f8      	b.n	8004e94 <ff_wtoupper+0x44>
 8004ea2:	3810      	subs	r0, #16
 8004ea4:	e7fb      	b.n	8004e9e <ff_wtoupper+0x4e>
 8004ea6:	3820      	subs	r0, #32
 8004ea8:	e7f9      	b.n	8004e9e <ff_wtoupper+0x4e>
 8004eaa:	3830      	subs	r0, #48	@ 0x30
 8004eac:	e7f7      	b.n	8004e9e <ff_wtoupper+0x4e>
 8004eae:	381a      	subs	r0, #26
 8004eb0:	e7f5      	b.n	8004e9e <ff_wtoupper+0x4e>
 8004eb2:	3008      	adds	r0, #8
 8004eb4:	e7f3      	b.n	8004e9e <ff_wtoupper+0x4e>
 8004eb6:	3850      	subs	r0, #80	@ 0x50
 8004eb8:	e7f1      	b.n	8004e9e <ff_wtoupper+0x4e>
 8004eba:	f5a0 50e3 	sub.w	r0, r0, #7264	@ 0x1c60
 8004ebe:	e7ee      	b.n	8004e9e <ff_wtoupper+0x4e>
 8004ec0:	3104      	adds	r1, #4
 8004ec2:	2d00      	cmp	r5, #0
 8004ec4:	d1cc      	bne.n	8004e60 <ff_wtoupper+0x10>
 8004ec6:	eb02 0346 	add.w	r3, r2, r6, lsl #1
 8004eca:	e7c8      	b.n	8004e5e <ff_wtoupper+0xe>
 8004ecc:	08005388 	.word	0x08005388
 8004ed0:	08005444 	.word	0x08005444

08004ed4 <memset>:
 8004ed4:	4402      	add	r2, r0
 8004ed6:	4603      	mov	r3, r0
 8004ed8:	4293      	cmp	r3, r2
 8004eda:	d100      	bne.n	8004ede <memset+0xa>
 8004edc:	4770      	bx	lr
 8004ede:	f803 1b01 	strb.w	r1, [r3], #1
 8004ee2:	e7f9      	b.n	8004ed8 <memset+0x4>

08004ee4 <__libc_init_array>:
 8004ee4:	b570      	push	{r4, r5, r6, lr}
 8004ee6:	4d0d      	ldr	r5, [pc, #52]	@ (8004f1c <__libc_init_array+0x38>)
 8004ee8:	4c0d      	ldr	r4, [pc, #52]	@ (8004f20 <__libc_init_array+0x3c>)
 8004eea:	1b64      	subs	r4, r4, r5
 8004eec:	10a4      	asrs	r4, r4, #2
 8004eee:	2600      	movs	r6, #0
 8004ef0:	42a6      	cmp	r6, r4
 8004ef2:	d109      	bne.n	8004f08 <__libc_init_array+0x24>
 8004ef4:	4d0b      	ldr	r5, [pc, #44]	@ (8004f24 <__libc_init_array+0x40>)
 8004ef6:	4c0c      	ldr	r4, [pc, #48]	@ (8004f28 <__libc_init_array+0x44>)
 8004ef8:	f000 f818 	bl	8004f2c <_init>
 8004efc:	1b64      	subs	r4, r4, r5
 8004efe:	10a4      	asrs	r4, r4, #2
 8004f00:	2600      	movs	r6, #0
 8004f02:	42a6      	cmp	r6, r4
 8004f04:	d105      	bne.n	8004f12 <__libc_init_array+0x2e>
 8004f06:	bd70      	pop	{r4, r5, r6, pc}
 8004f08:	f855 3b04 	ldr.w	r3, [r5], #4
 8004f0c:	4798      	blx	r3
 8004f0e:	3601      	adds	r6, #1
 8004f10:	e7ee      	b.n	8004ef0 <__libc_init_array+0xc>
 8004f12:	f855 3b04 	ldr.w	r3, [r5], #4
 8004f16:	4798      	blx	r3
 8004f18:	3601      	adds	r6, #1
 8004f1a:	e7f2      	b.n	8004f02 <__libc_init_array+0x1e>
 8004f1c:	08005740 	.word	0x08005740
 8004f20:	08005740 	.word	0x08005740
 8004f24:	08005740 	.word	0x08005740
 8004f28:	08005744 	.word	0x08005744

08004f2c <_init>:
 8004f2c:	b5f8      	push	{r3, r4, r5, r6, r7, lr}
 8004f2e:	bf00      	nop
 8004f30:	bcf8      	pop	{r3, r4, r5, r6, r7}
 8004f32:	bc08      	pop	{r3}
 8004f34:	469e      	mov	lr, r3
 8004f36:	4770      	bx	lr

08004f38 <_fini>:
 8004f38:	b5f8      	push	{r3, r4, r5, r6, r7, lr}
 8004f3a:	bf00      	nop
 8004f3c:	bcf8      	pop	{r3, r4, r5, r6, r7}
 8004f3e:	bc08      	pop	{r3}
 8004f40:	469e      	mov	lr, r3
 8004f42:	4770      	bx	lr
